
kernel:     file format elf32-i386


Disassembly of section .text:

00100000 <brelse>:
}

// Release the buffer buf.
void
brelse(struct buf *b)
{
  100000:	55                   	push   %ebp
  100001:	89 e5                	mov    %esp,%ebp
  100003:	53                   	push   %ebx
  100004:	83 ec 14             	sub    $0x14,%esp
  100007:	8b 5d 08             	mov    0x8(%ebp),%ebx
  if((b->flags & B_BUSY) == 0)
  10000a:	f6 03 01             	testb  $0x1,(%ebx)
  10000d:	74 58                	je     100067 <brelse+0x67>
    panic("brelse");

  acquire(&buf_table_lock);
  10000f:	c7 04 24 80 8f 10 00 	movl   $0x108f80,(%esp)
  100016:	e8 75 3f 00 00       	call   103f90 <acquire>

  b->next->prev = b->prev;
  10001b:	8b 43 10             	mov    0x10(%ebx),%eax
  10001e:	8b 53 0c             	mov    0xc(%ebx),%edx
  b->next = bufhead.next;
  b->prev = &bufhead;
  bufhead.next->prev = b;
  bufhead.next = b;

  b->flags &= ~B_BUSY;
  100021:	83 23 fe             	andl   $0xfffffffe,(%ebx)
  if((b->flags & B_BUSY) == 0)
    panic("brelse");

  acquire(&buf_table_lock);

  b->next->prev = b->prev;
  100024:	89 50 0c             	mov    %edx,0xc(%eax)
  b->prev->next = b->next;
  100027:	8b 53 0c             	mov    0xc(%ebx),%edx
  b->next = bufhead.next;
  b->prev = &bufhead;
  10002a:	c7 43 0c 60 78 10 00 	movl   $0x107860,0xc(%ebx)
    panic("brelse");

  acquire(&buf_table_lock);

  b->next->prev = b->prev;
  b->prev->next = b->next;
  100031:	89 42 10             	mov    %eax,0x10(%edx)
  b->next = bufhead.next;
  100034:	a1 70 78 10 00       	mov    0x107870,%eax
  100039:	89 43 10             	mov    %eax,0x10(%ebx)
  b->prev = &bufhead;
  bufhead.next->prev = b;
  10003c:	a1 70 78 10 00       	mov    0x107870,%eax
  bufhead.next = b;
  100041:	89 1d 70 78 10 00    	mov    %ebx,0x107870

  b->next->prev = b->prev;
  b->prev->next = b->next;
  b->next = bufhead.next;
  b->prev = &bufhead;
  bufhead.next->prev = b;
  100047:	89 58 0c             	mov    %ebx,0xc(%eax)
  bufhead.next = b;

  b->flags &= ~B_BUSY;
  wakeup(buf);
  10004a:	c7 04 24 80 7a 10 00 	movl   $0x107a80,(%esp)
  100051:	e8 aa 32 00 00       	call   103300 <wakeup>

  release(&buf_table_lock);
  100056:	c7 45 08 80 8f 10 00 	movl   $0x108f80,0x8(%ebp)
}
  10005d:	83 c4 14             	add    $0x14,%esp
  100060:	5b                   	pop    %ebx
  100061:	5d                   	pop    %ebp
  bufhead.next = b;

  b->flags &= ~B_BUSY;
  wakeup(buf);

  release(&buf_table_lock);
  100062:	e9 e9 3e 00 00       	jmp    103f50 <release>
// Release the buffer buf.
void
brelse(struct buf *b)
{
  if((b->flags & B_BUSY) == 0)
    panic("brelse");
  100067:	c7 04 24 80 5f 10 00 	movl   $0x105f80,(%esp)
  10006e:	e8 ad 08 00 00       	call   100920 <panic>
  100073:	8d b6 00 00 00 00    	lea    0x0(%esi),%esi
  100079:	8d bc 27 00 00 00 00 	lea    0x0(%edi,%eiz,1),%edi

00100080 <bwrite>:
}

// Write buf's contents to disk.  Must be locked.
void
bwrite(struct buf *b)
{
  100080:	55                   	push   %ebp
  100081:	89 e5                	mov    %esp,%ebp
  100083:	83 ec 18             	sub    $0x18,%esp
  100086:	8b 45 08             	mov    0x8(%ebp),%eax
  if((b->flags & B_BUSY) == 0)
  100089:	8b 10                	mov    (%eax),%edx
  10008b:	f6 c2 01             	test   $0x1,%dl
  10008e:	74 0e                	je     10009e <bwrite+0x1e>
    panic("bwrite");
  b->flags |= B_DIRTY;
  100090:	83 ca 04             	or     $0x4,%edx
  100093:	89 10                	mov    %edx,(%eax)
  ide_rw(b);
  100095:	89 45 08             	mov    %eax,0x8(%ebp)
}
  100098:	c9                   	leave  
bwrite(struct buf *b)
{
  if((b->flags & B_BUSY) == 0)
    panic("bwrite");
  b->flags |= B_DIRTY;
  ide_rw(b);
  100099:	e9 c2 1f 00 00       	jmp    102060 <ide_rw>
// Write buf's contents to disk.  Must be locked.
void
bwrite(struct buf *b)
{
  if((b->flags & B_BUSY) == 0)
    panic("bwrite");
  10009e:	c7 04 24 87 5f 10 00 	movl   $0x105f87,(%esp)
  1000a5:	e8 76 08 00 00       	call   100920 <panic>
  1000aa:	8d b6 00 00 00 00    	lea    0x0(%esi),%esi

001000b0 <bread>:
}

// Return a B_BUSY buf with the contents of the indicated disk sector.
struct buf*
bread(uint dev, uint sector)
{
  1000b0:	55                   	push   %ebp
  1000b1:	89 e5                	mov    %esp,%ebp
  1000b3:	57                   	push   %edi
  1000b4:	56                   	push   %esi
  1000b5:	53                   	push   %ebx
  1000b6:	83 ec 1c             	sub    $0x1c,%esp
  1000b9:	8b 75 08             	mov    0x8(%ebp),%esi
  1000bc:	8b 7d 0c             	mov    0xc(%ebp),%edi
static struct buf*
bget(uint dev, uint sector)
{
  struct buf *b;

  acquire(&buf_table_lock);
  1000bf:	c7 04 24 80 8f 10 00 	movl   $0x108f80,(%esp)
  1000c6:	e8 c5 3e 00 00       	call   103f90 <acquire>

 loop:
  // Try for cached block.
  for(b = bufhead.next; b != &bufhead; b = b->next){
  1000cb:	8b 1d 70 78 10 00    	mov    0x107870,%ebx
  1000d1:	81 fb 60 78 10 00    	cmp    $0x107860,%ebx
  1000d7:	75 12                	jne    1000eb <bread+0x3b>
  1000d9:	eb 3d                	jmp    100118 <bread+0x68>
  1000db:	90                   	nop
  1000dc:	8d 74 26 00          	lea    0x0(%esi,%eiz,1),%esi
  1000e0:	8b 5b 10             	mov    0x10(%ebx),%ebx
  1000e3:	81 fb 60 78 10 00    	cmp    $0x107860,%ebx
  1000e9:	74 2d                	je     100118 <bread+0x68>
    if((b->flags & (B_BUSY|B_VALID)) &&
  1000eb:	8b 03                	mov    (%ebx),%eax
  1000ed:	a8 03                	test   $0x3,%al
  1000ef:	74 ef                	je     1000e0 <bread+0x30>
  1000f1:	3b 73 04             	cmp    0x4(%ebx),%esi
  1000f4:	75 ea                	jne    1000e0 <bread+0x30>
  1000f6:	3b 7b 08             	cmp    0x8(%ebx),%edi
  1000f9:	75 e5                	jne    1000e0 <bread+0x30>
       b->dev == dev && b->sector == sector){
      if(b->flags & B_BUSY){
  1000fb:	a8 01                	test   $0x1,%al
  1000fd:	8d 76 00             	lea    0x0(%esi),%esi
  100100:	74 71                	je     100173 <bread+0xc3>
        sleep(buf, &buf_table_lock);
  100102:	c7 44 24 04 80 8f 10 	movl   $0x108f80,0x4(%esp)
  100109:	00 
  10010a:	c7 04 24 80 7a 10 00 	movl   $0x107a80,(%esp)
  100111:	e8 ca 34 00 00       	call   1035e0 <sleep>
  100116:	eb b3                	jmp    1000cb <bread+0x1b>
      return b;
    }
  }

  // Allocate fresh block.
  for(b = bufhead.prev; b != &bufhead; b = b->prev){
  100118:	8b 1d 6c 78 10 00    	mov    0x10786c,%ebx
  10011e:	81 fb 60 78 10 00    	cmp    $0x107860,%ebx
  100124:	75 0d                	jne    100133 <bread+0x83>
  100126:	eb 3f                	jmp    100167 <bread+0xb7>
  100128:	8b 5b 0c             	mov    0xc(%ebx),%ebx
  10012b:	81 fb 60 78 10 00    	cmp    $0x107860,%ebx
  100131:	74 34                	je     100167 <bread+0xb7>
    if((b->flags & B_BUSY) == 0){
  100133:	f6 03 01             	testb  $0x1,(%ebx)
  100136:	75 f0                	jne    100128 <bread+0x78>
      b->flags = B_BUSY;
  100138:	c7 03 01 00 00 00    	movl   $0x1,(%ebx)
      b->dev = dev;
  10013e:	89 73 04             	mov    %esi,0x4(%ebx)
      b->sector = sector;
  100141:	89 7b 08             	mov    %edi,0x8(%ebx)
      release(&buf_table_lock);
  100144:	c7 04 24 80 8f 10 00 	movl   $0x108f80,(%esp)
  10014b:	e8 00 3e 00 00       	call   103f50 <release>
bread(uint dev, uint sector)
{
  struct buf *b;

  b = bget(dev, sector);
  if(!(b->flags & B_VALID))
  100150:	f6 03 02             	testb  $0x2,(%ebx)
  100153:	75 08                	jne    10015d <bread+0xad>
    ide_rw(b);
  100155:	89 1c 24             	mov    %ebx,(%esp)
  100158:	e8 03 1f 00 00       	call   102060 <ide_rw>
  return b;
}
  10015d:	83 c4 1c             	add    $0x1c,%esp
  100160:	89 d8                	mov    %ebx,%eax
  100162:	5b                   	pop    %ebx
  100163:	5e                   	pop    %esi
  100164:	5f                   	pop    %edi
  100165:	5d                   	pop    %ebp
  100166:	c3                   	ret    
      b->sector = sector;
      release(&buf_table_lock);
      return b;
    }
  }
  panic("bget: no buffers");
  100167:	c7 04 24 8e 5f 10 00 	movl   $0x105f8e,(%esp)
  10016e:	e8 ad 07 00 00       	call   100920 <panic>
       b->dev == dev && b->sector == sector){
      if(b->flags & B_BUSY){
        sleep(buf, &buf_table_lock);
        goto loop;
      }
      b->flags |= B_BUSY;
  100173:	83 c8 01             	or     $0x1,%eax
  100176:	89 03                	mov    %eax,(%ebx)
      release(&buf_table_lock);
  100178:	c7 04 24 80 8f 10 00 	movl   $0x108f80,(%esp)
  10017f:	e8 cc 3d 00 00       	call   103f50 <release>
  100184:	eb ca                	jmp    100150 <bread+0xa0>
  100186:	8d 76 00             	lea    0x0(%esi),%esi
  100189:	8d bc 27 00 00 00 00 	lea    0x0(%edi,%eiz,1),%edi

00100190 <binit>:
// bufhead->tail is least recently used.
struct buf bufhead;

void
binit(void)
{
  100190:	55                   	push   %ebp
  100191:	89 e5                	mov    %esp,%ebp
  100193:	83 ec 18             	sub    $0x18,%esp
  struct buf *b;

  initlock(&buf_table_lock, "buf_table");
  100196:	c7 44 24 04 9f 5f 10 	movl   $0x105f9f,0x4(%esp)
  10019d:	00 
  10019e:	c7 04 24 80 8f 10 00 	movl   $0x108f80,(%esp)
  1001a5:	e8 26 3c 00 00       	call   103dd0 <initlock>

  // Create linked list of buffers
  bufhead.prev = &bufhead;
  bufhead.next = &bufhead;
  for(b = buf; b < buf+NBUF; b++){
  1001aa:	b8 70 8f 10 00       	mov    $0x108f70,%eax
  1001af:	3d 80 7a 10 00       	cmp    $0x107a80,%eax
  struct buf *b;

  initlock(&buf_table_lock, "buf_table");

  // Create linked list of buffers
  bufhead.prev = &bufhead;
  1001b4:	c7 05 6c 78 10 00 60 	movl   $0x107860,0x10786c
  1001bb:	78 10 00 
  bufhead.next = &bufhead;
  1001be:	c7 05 70 78 10 00 60 	movl   $0x107860,0x107870
  1001c5:	78 10 00 
  for(b = buf; b < buf+NBUF; b++){
  1001c8:	76 33                	jbe    1001fd <binit+0x6d>
// bufhead->next is most recently used.
// bufhead->tail is least recently used.
struct buf bufhead;

void
binit(void)
  1001ca:	ba 60 78 10 00       	mov    $0x107860,%edx
  1001cf:	b8 80 7a 10 00       	mov    $0x107a80,%eax
  1001d4:	8d 74 26 00          	lea    0x0(%esi,%eiz,1),%esi

  // Create linked list of buffers
  bufhead.prev = &bufhead;
  bufhead.next = &bufhead;
  for(b = buf; b < buf+NBUF; b++){
    b->next = bufhead.next;
  1001d8:	89 50 10             	mov    %edx,0x10(%eax)
    b->prev = &bufhead;
  1001db:	c7 40 0c 60 78 10 00 	movl   $0x107860,0xc(%eax)
    bufhead.next->prev = b;
  1001e2:	89 42 0c             	mov    %eax,0xc(%edx)
  initlock(&buf_table_lock, "buf_table");

  // Create linked list of buffers
  bufhead.prev = &bufhead;
  bufhead.next = &bufhead;
  for(b = buf; b < buf+NBUF; b++){
  1001e5:	89 c2                	mov    %eax,%edx
  1001e7:	05 18 02 00 00       	add    $0x218,%eax
  1001ec:	3d 70 8f 10 00       	cmp    $0x108f70,%eax
  1001f1:	75 e5                	jne    1001d8 <binit+0x48>
  1001f3:	c7 05 70 78 10 00 58 	movl   $0x108d58,0x107870
  1001fa:	8d 10 00 
    b->next = bufhead.next;
    b->prev = &bufhead;
    bufhead.next->prev = b;
    bufhead.next = b;
  }
}
  1001fd:	c9                   	leave  
  1001fe:	c3                   	ret    
  1001ff:	90                   	nop

00100200 <console_init>:
  return target - n;
}

void
console_init(void)
{
  100200:	55                   	push   %ebp
  100201:	89 e5                	mov    %esp,%ebp
  100203:	83 ec 18             	sub    $0x18,%esp
  initlock(&console_lock, "console");
  100206:	c7 44 24 04 a9 5f 10 	movl   $0x105fa9,0x4(%esp)
  10020d:	00 
  10020e:	c7 04 24 c0 77 10 00 	movl   $0x1077c0,(%esp)
  100215:	e8 b6 3b 00 00       	call   103dd0 <initlock>
  initlock(&input.lock, "console input");
  10021a:	c7 44 24 04 b1 5f 10 	movl   $0x105fb1,0x4(%esp)
  100221:	00 
  100222:	c7 04 24 c0 8f 10 00 	movl   $0x108fc0,(%esp)
  100229:	e8 a2 3b 00 00       	call   103dd0 <initlock>

  devsw[CONSOLE].write = console_write;
  devsw[CONSOLE].read = console_read;
  use_console_lock = 1;

  pic_enable(IRQ_KBD);
  10022e:	c7 04 24 01 00 00 00 	movl   $0x1,(%esp)
console_init(void)
{
  initlock(&console_lock, "console");
  initlock(&input.lock, "console input");

  devsw[CONSOLE].write = console_write;
  100235:	c7 05 2c 9a 10 00 90 	movl   $0x100690,0x109a2c
  10023c:	06 10 00 
  devsw[CONSOLE].read = console_read;
  10023f:	c7 05 28 9a 10 00 70 	movl   $0x100270,0x109a28
  100246:	02 10 00 
  use_console_lock = 1;
  100249:	c7 05 a4 77 10 00 01 	movl   $0x1,0x1077a4
  100250:	00 00 00 

  pic_enable(IRQ_KBD);
  100253:	e8 08 2b 00 00       	call   102d60 <pic_enable>
  ioapic_enable(IRQ_KBD, 0);
  100258:	c7 44 24 04 00 00 00 	movl   $0x0,0x4(%esp)
  10025f:	00 
  100260:	c7 04 24 01 00 00 00 	movl   $0x1,(%esp)
  100267:	e8 e4 1f 00 00       	call   102250 <ioapic_enable>
}
  10026c:	c9                   	leave  
  10026d:	c3                   	ret    
  10026e:	66 90                	xchg   %ax,%ax

00100270 <console_read>:
  release(&input.lock);
}

int
console_read(struct inode *ip, char *dst, int n)
{
  100270:	55                   	push   %ebp
  100271:	89 e5                	mov    %esp,%ebp
  100273:	57                   	push   %edi
  100274:	56                   	push   %esi
  100275:	53                   	push   %ebx
  100276:	83 ec 2c             	sub    $0x2c,%esp
  100279:	8b 5d 10             	mov    0x10(%ebp),%ebx
  10027c:	8b 75 08             	mov    0x8(%ebp),%esi
  uint target;
  int c;

  iunlock(ip);
  10027f:	89 34 24             	mov    %esi,(%esp)
  100282:	e8 a9 19 00 00       	call   101c30 <iunlock>
  target = n;
  100287:	89 5d e4             	mov    %ebx,-0x1c(%ebp)
  acquire(&input.lock);
  10028a:	c7 04 24 c0 8f 10 00 	movl   $0x108fc0,(%esp)
  100291:	e8 fa 3c 00 00       	call   103f90 <acquire>
  while(n > 0){
  100296:	85 db                	test   %ebx,%ebx
  100298:	7f 26                	jg     1002c0 <console_read+0x50>
  10029a:	e9 c3 00 00 00       	jmp    100362 <console_read+0xf2>
  10029f:	90                   	nop
    while(input.r == input.w){
      if(cp->killed){
  1002a0:	e8 db 30 00 00       	call   103380 <curproc>
  1002a5:	8b 40 1c             	mov    0x1c(%eax),%eax
  1002a8:	85 c0                	test   %eax,%eax
  1002aa:	75 64                	jne    100310 <console_read+0xa0>
        release(&input.lock);
        ilock(ip);
        return -1;
      }
      sleep(&input.r, &input.lock);
  1002ac:	c7 44 24 04 c0 8f 10 	movl   $0x108fc0,0x4(%esp)
  1002b3:	00 
  1002b4:	c7 04 24 74 90 10 00 	movl   $0x109074,(%esp)
  1002bb:	e8 20 33 00 00       	call   1035e0 <sleep>

  iunlock(ip);
  target = n;
  acquire(&input.lock);
  while(n > 0){
    while(input.r == input.w){
  1002c0:	a1 74 90 10 00       	mov    0x109074,%eax
  1002c5:	3b 05 78 90 10 00    	cmp    0x109078,%eax
  1002cb:	74 d3                	je     1002a0 <console_read+0x30>
        ilock(ip);
        return -1;
      }
      sleep(&input.r, &input.lock);
    }
    c = input.buf[input.r++ % INPUT_BUF];
  1002cd:	89 c1                	mov    %eax,%ecx
  1002cf:	c1 f9 1f             	sar    $0x1f,%ecx
  1002d2:	c1 e9 19             	shr    $0x19,%ecx
  1002d5:	8d 14 08             	lea    (%eax,%ecx,1),%edx
  1002d8:	83 e2 7f             	and    $0x7f,%edx
  1002db:	29 ca                	sub    %ecx,%edx
  1002dd:	0f b6 8a f4 8f 10 00 	movzbl 0x108ff4(%edx),%ecx
  1002e4:	8d 78 01             	lea    0x1(%eax),%edi
  1002e7:	89 3d 74 90 10 00    	mov    %edi,0x109074
  1002ed:	0f be d1             	movsbl %cl,%edx
    if(c == C('D')){  // EOF
  1002f0:	83 fa 04             	cmp    $0x4,%edx
  1002f3:	74 3c                	je     100331 <console_read+0xc1>
        // caller gets a 0-byte result.
        input.r--;
      }
      break;
    }
    *dst++ = c;
  1002f5:	8b 45 0c             	mov    0xc(%ebp),%eax
    --n;
  1002f8:	83 eb 01             	sub    $0x1,%ebx
    if(c == '\n')
  1002fb:	83 fa 0a             	cmp    $0xa,%edx
        // caller gets a 0-byte result.
        input.r--;
      }
      break;
    }
    *dst++ = c;
  1002fe:	88 08                	mov    %cl,(%eax)
    --n;
    if(c == '\n')
  100300:	74 39                	je     10033b <console_read+0xcb>
  int c;

  iunlock(ip);
  target = n;
  acquire(&input.lock);
  while(n > 0){
  100302:	85 db                	test   %ebx,%ebx
  100304:	7e 35                	jle    10033b <console_read+0xcb>
        // caller gets a 0-byte result.
        input.r--;
      }
      break;
    }
    *dst++ = c;
  100306:	83 45 0c 01          	addl   $0x1,0xc(%ebp)
  10030a:	eb b4                	jmp    1002c0 <console_read+0x50>
  10030c:	8d 74 26 00          	lea    0x0(%esi,%eiz,1),%esi
  target = n;
  acquire(&input.lock);
  while(n > 0){
    while(input.r == input.w){
      if(cp->killed){
        release(&input.lock);
  100310:	c7 04 24 c0 8f 10 00 	movl   $0x108fc0,(%esp)
  100317:	e8 34 3c 00 00       	call   103f50 <release>
        ilock(ip);
  10031c:	89 34 24             	mov    %esi,(%esp)
  10031f:	e8 7c 19 00 00       	call   101ca0 <ilock>
  }
  release(&input.lock);
  ilock(ip);

  return target - n;
}
  100324:	83 c4 2c             	add    $0x2c,%esp
  acquire(&input.lock);
  while(n > 0){
    while(input.r == input.w){
      if(cp->killed){
        release(&input.lock);
        ilock(ip);
  100327:	b8 ff ff ff ff       	mov    $0xffffffff,%eax
  }
  release(&input.lock);
  ilock(ip);

  return target - n;
}
  10032c:	5b                   	pop    %ebx
  10032d:	5e                   	pop    %esi
  10032e:	5f                   	pop    %edi
  10032f:	5d                   	pop    %ebp
  100330:	c3                   	ret    
      }
      sleep(&input.r, &input.lock);
    }
    c = input.buf[input.r++ % INPUT_BUF];
    if(c == C('D')){  // EOF
      if(n < target){
  100331:	39 5d e4             	cmp    %ebx,-0x1c(%ebp)
  100334:	76 05                	jbe    10033b <console_read+0xcb>
        // Save ^D for next time, to make sure
        // caller gets a 0-byte result.
        input.r--;
  100336:	a3 74 90 10 00       	mov    %eax,0x109074
  10033b:	8b 45 e4             	mov    -0x1c(%ebp),%eax
  10033e:	29 d8                	sub    %ebx,%eax
    *dst++ = c;
    --n;
    if(c == '\n')
      break;
  }
  release(&input.lock);
  100340:	c7 04 24 c0 8f 10 00 	movl   $0x108fc0,(%esp)
  100347:	89 45 e0             	mov    %eax,-0x20(%ebp)
  10034a:	e8 01 3c 00 00       	call   103f50 <release>
  ilock(ip);
  10034f:	89 34 24             	mov    %esi,(%esp)
  100352:	e8 49 19 00 00       	call   101ca0 <ilock>
  100357:	8b 45 e0             	mov    -0x20(%ebp),%eax

  return target - n;
}
  10035a:	83 c4 2c             	add    $0x2c,%esp
  10035d:	5b                   	pop    %ebx
  10035e:	5e                   	pop    %esi
  10035f:	5f                   	pop    %edi
  100360:	5d                   	pop    %ebp
  100361:	c3                   	ret    

  iunlock(ip);
  target = n;
  acquire(&input.lock);
  while(n > 0){
    while(input.r == input.w){
  100362:	31 c0                	xor    %eax,%eax
  100364:	eb da                	jmp    100340 <console_read+0xd0>
  100366:	8d 76 00             	lea    0x0(%esi),%esi
  100369:	8d bc 27 00 00 00 00 	lea    0x0(%edi,%eiz,1),%edi

00100370 <cons_putc>:
  crt[pos] = ' ' | 0x0700;
}

void
cons_putc(int c)
{
  100370:	55                   	push   %ebp
  100371:	89 e5                	mov    %esp,%ebp
  100373:	57                   	push   %edi
  100374:	56                   	push   %esi
  100375:	53                   	push   %ebx
  100376:	83 ec 1c             	sub    $0x1c,%esp
  100379:	8b 4d 08             	mov    0x8(%ebp),%ecx
  if(panicked){
  10037c:	83 3d a0 77 10 00 00 	cmpl   $0x0,0x1077a0
  100383:	0f 85 e1 00 00 00    	jne    10046a <cons_putc+0xfa>
static inline uchar
inb(ushort port)
{
  uchar data;

  asm volatile("in %1,%0" : "=a" (data) : "d" (port));
  100389:	b8 79 03 00 00       	mov    $0x379,%eax
  10038e:	89 c2                	mov    %eax,%edx
  100390:	ec                   	in     (%dx),%al
}

static inline void
cli(void)
{
  asm volatile("cli");
  100391:	31 db                	xor    %ebx,%ebx
static void
lpt_putc(int c)
{
  int i;

  for(i = 0; !(inb(LPTPORT+1) & 0x80) && i < 12800; i++)
  100393:	84 c0                	test   %al,%al
  100395:	79 14                	jns    1003ab <cons_putc+0x3b>
  100397:	eb 19                	jmp    1003b2 <cons_putc+0x42>
  100399:	8d b4 26 00 00 00 00 	lea    0x0(%esi,%eiz,1),%esi
  1003a0:	83 c3 01             	add    $0x1,%ebx
  1003a3:	81 fb 00 32 00 00    	cmp    $0x3200,%ebx
  1003a9:	74 07                	je     1003b2 <cons_putc+0x42>
static inline uchar
inb(ushort port)
{
  uchar data;

  asm volatile("in %1,%0" : "=a" (data) : "d" (port));
  1003ab:	ec                   	in     (%dx),%al
  1003ac:	84 c0                	test   %al,%al
  1003ae:	66 90                	xchg   %ax,%ax
  1003b0:	79 ee                	jns    1003a0 <cons_putc+0x30>
    ;
  if(c == BACKSPACE)
  1003b2:	81 f9 00 01 00 00    	cmp    $0x100,%ecx
  1003b8:	89 c8                	mov    %ecx,%eax
  1003ba:	0f 84 ad 00 00 00    	je     10046d <cons_putc+0xfd>
}

static inline void
outb(ushort port, uchar data)
{
  asm volatile("out %0,%1" : : "a" (data), "d" (port));
  1003c0:	ba 78 03 00 00       	mov    $0x378,%edx
  1003c5:	ee                   	out    %al,(%dx)
  1003c6:	b8 0d 00 00 00       	mov    $0xd,%eax
  1003cb:	b2 7a                	mov    $0x7a,%dl
  1003cd:	ee                   	out    %al,(%dx)
  1003ce:	b8 08 00 00 00       	mov    $0x8,%eax
  1003d3:	ee                   	out    %al,(%dx)
  1003d4:	be d4 03 00 00       	mov    $0x3d4,%esi
  1003d9:	b8 0e 00 00 00       	mov    $0xe,%eax
  1003de:	89 f2                	mov    %esi,%edx
  1003e0:	ee                   	out    %al,(%dx)
static inline uchar
inb(ushort port)
{
  uchar data;

  asm volatile("in %1,%0" : "=a" (data) : "d" (port));
  1003e1:	bf d5 03 00 00       	mov    $0x3d5,%edi
  1003e6:	89 fa                	mov    %edi,%edx
  1003e8:	ec                   	in     (%dx),%al
{
  int pos;
  
  // Cursor position: col + 80*row.
  outb(CRTPORT, 14);
  pos = inb(CRTPORT+1) << 8;
  1003e9:	0f b6 d8             	movzbl %al,%ebx
}

static inline void
outb(ushort port, uchar data)
{
  asm volatile("out %0,%1" : : "a" (data), "d" (port));
  1003ec:	89 f2                	mov    %esi,%edx
  1003ee:	c1 e3 08             	shl    $0x8,%ebx
  1003f1:	b8 0f 00 00 00       	mov    $0xf,%eax
  1003f6:	ee                   	out    %al,(%dx)
static inline uchar
inb(ushort port)
{
  uchar data;

  asm volatile("in %1,%0" : "=a" (data) : "d" (port));
  1003f7:	89 fa                	mov    %edi,%edx
  1003f9:	ec                   	in     (%dx),%al
  outb(CRTPORT, 15);
  pos |= inb(CRTPORT+1);
  1003fa:	0f b6 c0             	movzbl %al,%eax
  1003fd:	09 c3                	or     %eax,%ebx

  if(c == '\n')
  1003ff:	83 f9 0a             	cmp    $0xa,%ecx
  100402:	0f 84 da 00 00 00    	je     1004e2 <cons_putc+0x172>
    pos += 80 - pos%80;
  else if(c == BACKSPACE){
  100408:	81 f9 00 01 00 00    	cmp    $0x100,%ecx
  10040e:	0f 84 ad 00 00 00    	je     1004c1 <cons_putc+0x151>
    if(pos > 0)
      crt[--pos] = ' ' | 0x0700;
  } else
    crt[pos++] = (c&0xff) | 0x0700;  // black on white
  100414:	66 81 e1 ff 00       	and    $0xff,%cx
  100419:	80 cd 07             	or     $0x7,%ch
  10041c:	66 89 8c 1b 00 80 0b 	mov    %cx,0xb8000(%ebx,%ebx,1)
  100423:	00 
  100424:	83 c3 01             	add    $0x1,%ebx
  
  if((pos/80) >= 24){  // Scroll up.
  100427:	81 fb 7f 07 00 00    	cmp    $0x77f,%ebx
  10042d:	8d 8c 1b 00 80 0b 00 	lea    0xb8000(%ebx,%ebx,1),%ecx
  100434:	7f 41                	jg     100477 <cons_putc+0x107>
}

static inline void
outb(ushort port, uchar data)
{
  asm volatile("out %0,%1" : : "a" (data), "d" (port));
  100436:	be d4 03 00 00       	mov    $0x3d4,%esi
  10043b:	b8 0e 00 00 00       	mov    $0xe,%eax
  100440:	89 f2                	mov    %esi,%edx
  100442:	ee                   	out    %al,(%dx)
  100443:	bf d5 03 00 00       	mov    $0x3d5,%edi
  100448:	89 d8                	mov    %ebx,%eax
  10044a:	c1 f8 08             	sar    $0x8,%eax
  10044d:	89 fa                	mov    %edi,%edx
  10044f:	ee                   	out    %al,(%dx)
  100450:	b8 0f 00 00 00       	mov    $0xf,%eax
  100455:	89 f2                	mov    %esi,%edx
  100457:	ee                   	out    %al,(%dx)
  100458:	89 d8                	mov    %ebx,%eax
  10045a:	89 fa                	mov    %edi,%edx
  10045c:	ee                   	out    %al,(%dx)
  
  outb(CRTPORT, 14);
  outb(CRTPORT+1, pos>>8);
  outb(CRTPORT, 15);
  outb(CRTPORT+1, pos);
  crt[pos] = ' ' | 0x0700;
  10045d:	66 c7 01 20 07       	movw   $0x720,(%ecx)
      ;
  }

  lpt_putc(c);
  cga_putc(c);
}
  100462:	83 c4 1c             	add    $0x1c,%esp
  100465:	5b                   	pop    %ebx
  100466:	5e                   	pop    %esi
  100467:	5f                   	pop    %edi
  100468:	5d                   	pop    %ebp
  100469:	c3                   	ret    
}

static inline void
cli(void)
{
  asm volatile("cli");
  10046a:	fa                   	cli    
  10046b:	eb fe                	jmp    10046b <cons_putc+0xfb>
{
  int i;

  for(i = 0; !(inb(LPTPORT+1) & 0x80) && i < 12800; i++)
    ;
  if(c == BACKSPACE)
  10046d:	b8 08 00 00 00       	mov    $0x8,%eax
  100472:	e9 49 ff ff ff       	jmp    1003c0 <cons_putc+0x50>
  } else
    crt[pos++] = (c&0xff) | 0x0700;  // black on white
  
  if((pos/80) >= 24){  // Scroll up.
    memmove(crt, crt+80, sizeof(crt[0])*23*80);
    pos -= 80;
  100477:	83 eb 50             	sub    $0x50,%ebx
      crt[--pos] = ' ' | 0x0700;
  } else
    crt[pos++] = (c&0xff) | 0x0700;  // black on white
  
  if((pos/80) >= 24){  // Scroll up.
    memmove(crt, crt+80, sizeof(crt[0])*23*80);
  10047a:	c7 44 24 08 60 0e 00 	movl   $0xe60,0x8(%esp)
  100481:	00 
    pos -= 80;
    memset(crt+pos, 0, sizeof(crt[0])*(24*80 - pos));
  100482:	8d b4 1b 00 80 0b 00 	lea    0xb8000(%ebx,%ebx,1),%esi
      crt[--pos] = ' ' | 0x0700;
  } else
    crt[pos++] = (c&0xff) | 0x0700;  // black on white
  
  if((pos/80) >= 24){  // Scroll up.
    memmove(crt, crt+80, sizeof(crt[0])*23*80);
  100489:	c7 44 24 04 a0 80 0b 	movl   $0xb80a0,0x4(%esp)
  100490:	00 
  100491:	c7 04 24 00 80 0b 00 	movl   $0xb8000,(%esp)
  100498:	e8 f3 3b 00 00       	call   104090 <memmove>
    pos -= 80;
    memset(crt+pos, 0, sizeof(crt[0])*(24*80 - pos));
  10049d:	b8 80 07 00 00       	mov    $0x780,%eax
  1004a2:	29 d8                	sub    %ebx,%eax
  1004a4:	01 c0                	add    %eax,%eax
  1004a6:	89 44 24 08          	mov    %eax,0x8(%esp)
  1004aa:	c7 44 24 04 00 00 00 	movl   $0x0,0x4(%esp)
  1004b1:	00 
  1004b2:	89 34 24             	mov    %esi,(%esp)
  1004b5:	e8 46 3b 00 00       	call   104000 <memset>
  outb(CRTPORT+1, pos);
  crt[pos] = ' ' | 0x0700;
}

void
cons_putc(int c)
  1004ba:	89 f1                	mov    %esi,%ecx
  1004bc:	e9 75 ff ff ff       	jmp    100436 <cons_putc+0xc6>
  pos |= inb(CRTPORT+1);

  if(c == '\n')
    pos += 80 - pos%80;
  else if(c == BACKSPACE){
    if(pos > 0)
  1004c1:	85 db                	test   %ebx,%ebx
  1004c3:	8d 8c 1b 00 80 0b 00 	lea    0xb8000(%ebx,%ebx,1),%ecx
  1004ca:	0f 8e 66 ff ff ff    	jle    100436 <cons_putc+0xc6>
      crt[--pos] = ' ' | 0x0700;
  1004d0:	83 eb 01             	sub    $0x1,%ebx
  1004d3:	66 c7 84 1b 00 80 0b 	movw   $0x720,0xb8000(%ebx,%ebx,1)
  1004da:	00 20 07 
  1004dd:	e9 45 ff ff ff       	jmp    100427 <cons_putc+0xb7>
  pos = inb(CRTPORT+1) << 8;
  outb(CRTPORT, 15);
  pos |= inb(CRTPORT+1);

  if(c == '\n')
    pos += 80 - pos%80;
  1004e2:	89 da                	mov    %ebx,%edx
  1004e4:	89 d8                	mov    %ebx,%eax
  1004e6:	b1 50                	mov    $0x50,%cl
  1004e8:	83 c3 50             	add    $0x50,%ebx
  1004eb:	c1 fa 1f             	sar    $0x1f,%edx
  1004ee:	f7 f9                	idiv   %ecx
  1004f0:	29 d3                	sub    %edx,%ebx
  1004f2:	e9 30 ff ff ff       	jmp    100427 <cons_putc+0xb7>
  1004f7:	89 f6                	mov    %esi,%esi
  1004f9:	8d bc 27 00 00 00 00 	lea    0x0(%edi,%eiz,1),%edi

00100500 <console_intr>:

#define C(x)  ((x)-'@')  // Control-x

void
console_intr(int (*getc)(void))
{
  100500:	55                   	push   %ebp
  100501:	89 e5                	mov    %esp,%ebp
  100503:	57                   	push   %edi
  100504:	56                   	push   %esi
        cons_putc(BACKSPACE);
      }
      break;
    default:
      if(c != 0 && input.e < input.r+INPUT_BUF){
        input.buf[input.e++ % INPUT_BUF] = c;
  100505:	be f0 8f 10 00       	mov    $0x108ff0,%esi

#define C(x)  ((x)-'@')  // Control-x

void
console_intr(int (*getc)(void))
{
  10050a:	53                   	push   %ebx
  10050b:	83 ec 2c             	sub    $0x2c,%esp
  10050e:	8b 5d 08             	mov    0x8(%ebp),%ebx
  int c;

  acquire(&input.lock);
  100511:	c7 04 24 c0 8f 10 00 	movl   $0x108fc0,(%esp)
  100518:	e8 73 3a 00 00       	call   103f90 <acquire>
  10051d:	8d 76 00             	lea    0x0(%esi),%esi
  while((c = getc()) >= 0){
  100520:	ff d3                	call   *%ebx
  100522:	85 c0                	test   %eax,%eax
  100524:	0f 88 96 00 00 00    	js     1005c0 <console_intr+0xc0>
    switch(c){
  10052a:	83 f8 10             	cmp    $0x10,%eax
  10052d:	8d 76 00             	lea    0x0(%esi),%esi
  100530:	0f 84 a2 00 00 00    	je     1005d8 <console_intr+0xd8>
  100536:	83 f8 15             	cmp    $0x15,%eax
  100539:	0f 84 d9 00 00 00    	je     100618 <console_intr+0x118>
  10053f:	83 f8 08             	cmp    $0x8,%eax
  100542:	0f 84 a0 00 00 00    	je     1005e8 <console_intr+0xe8>
        input.e--;
        cons_putc(BACKSPACE);
      }
      break;
    default:
      if(c != 0 && input.e < input.r+INPUT_BUF){
  100548:	85 c0                	test   %eax,%eax
  10054a:	74 d4                	je     100520 <console_intr+0x20>
  10054c:	8b 0d 74 90 10 00    	mov    0x109074,%ecx
  100552:	8b 15 7c 90 10 00    	mov    0x10907c,%edx
  100558:	83 c1 7f             	add    $0x7f,%ecx
  10055b:	39 d1                	cmp    %edx,%ecx
  10055d:	7c c1                	jl     100520 <console_intr+0x20>
        input.buf[input.e++ % INPUT_BUF] = c;
  10055f:	89 d7                	mov    %edx,%edi
  100561:	c1 ff 1f             	sar    $0x1f,%edi
  100564:	c1 ef 19             	shr    $0x19,%edi
  100567:	8d 0c 3a             	lea    (%edx,%edi,1),%ecx
  10056a:	83 c2 01             	add    $0x1,%edx
  10056d:	83 e1 7f             	and    $0x7f,%ecx
  100570:	29 f9                	sub    %edi,%ecx
  100572:	88 44 0e 04          	mov    %al,0x4(%esi,%ecx,1)
        cons_putc(c);
  100576:	89 04 24             	mov    %eax,(%esp)
  100579:	89 45 e4             	mov    %eax,-0x1c(%ebp)
        cons_putc(BACKSPACE);
      }
      break;
    default:
      if(c != 0 && input.e < input.r+INPUT_BUF){
        input.buf[input.e++ % INPUT_BUF] = c;
  10057c:	89 15 7c 90 10 00    	mov    %edx,0x10907c
        cons_putc(c);
  100582:	e8 e9 fd ff ff       	call   100370 <cons_putc>
        if(c == '\n' || c == C('D') || input.e == input.r+INPUT_BUF){
  100587:	8b 45 e4             	mov    -0x1c(%ebp),%eax
  10058a:	83 f8 04             	cmp    $0x4,%eax
  10058d:	0f 84 e2 00 00 00    	je     100675 <console_intr+0x175>
  100593:	83 f8 0a             	cmp    $0xa,%eax
  100596:	0f 84 d9 00 00 00    	je     100675 <console_intr+0x175>
  10059c:	a1 74 90 10 00       	mov    0x109074,%eax
  1005a1:	83 e8 80             	sub    $0xffffff80,%eax
  1005a4:	39 05 7c 90 10 00    	cmp    %eax,0x10907c
  1005aa:	0f 84 ca 00 00 00    	je     10067a <console_intr+0x17a>
console_intr(int (*getc)(void))
{
  int c;

  acquire(&input.lock);
  while((c = getc()) >= 0){
  1005b0:	ff d3                	call   *%ebx
  1005b2:	85 c0                	test   %eax,%eax
  1005b4:	0f 89 70 ff ff ff    	jns    10052a <console_intr+0x2a>
  1005ba:	8d b6 00 00 00 00    	lea    0x0(%esi),%esi
        }
      }
      break;
    }
  }
  release(&input.lock);
  1005c0:	c7 45 08 c0 8f 10 00 	movl   $0x108fc0,0x8(%ebp)
}
  1005c7:	83 c4 2c             	add    $0x2c,%esp
  1005ca:	5b                   	pop    %ebx
  1005cb:	5e                   	pop    %esi
  1005cc:	5f                   	pop    %edi
  1005cd:	5d                   	pop    %ebp
        }
      }
      break;
    }
  }
  release(&input.lock);
  1005ce:	e9 7d 39 00 00       	jmp    103f50 <release>
  1005d3:	90                   	nop
  1005d4:	8d 74 26 00          	lea    0x0(%esi,%eiz,1),%esi

  acquire(&input.lock);
  while((c = getc()) >= 0){
    switch(c){
    case C('P'):  // Process listing.
      procdump();
  1005d8:	e8 c3 2b 00 00       	call   1031a0 <procdump>
      break;
  1005dd:	e9 3e ff ff ff       	jmp    100520 <console_intr+0x20>
  1005e2:	8d b6 00 00 00 00    	lea    0x0(%esi),%esi
        input.e--;
        cons_putc(BACKSPACE);
      }
      break;
    case C('H'):  // Backspace
      if(input.e > input.w){
  1005e8:	a1 7c 90 10 00       	mov    0x10907c,%eax
  1005ed:	3b 05 78 90 10 00    	cmp    0x109078,%eax
  1005f3:	0f 8e 27 ff ff ff    	jle    100520 <console_intr+0x20>
        input.e--;
  1005f9:	83 e8 01             	sub    $0x1,%eax
  1005fc:	a3 7c 90 10 00       	mov    %eax,0x10907c
        cons_putc(BACKSPACE);
  100601:	c7 04 24 00 01 00 00 	movl   $0x100,(%esp)
  100608:	e8 63 fd ff ff       	call   100370 <cons_putc>
  10060d:	e9 0e ff ff ff       	jmp    100520 <console_intr+0x20>
  100612:	8d b6 00 00 00 00    	lea    0x0(%esi),%esi
    switch(c){
    case C('P'):  // Process listing.
      procdump();
      break;
    case C('U'):  // Kill line.
      while(input.e > input.w &&
  100618:	8b 0d 7c 90 10 00    	mov    0x10907c,%ecx
  10061e:	39 0d 78 90 10 00    	cmp    %ecx,0x109078
  100624:	7c 2e                	jl     100654 <console_intr+0x154>
  100626:	e9 f5 fe ff ff       	jmp    100520 <console_intr+0x20>
  10062b:	90                   	nop
  10062c:	8d 74 26 00          	lea    0x0(%esi,%eiz,1),%esi
            input.buf[(input.e-1) % INPUT_BUF] != '\n'){
        input.e--;
  100630:	89 0d 7c 90 10 00    	mov    %ecx,0x10907c
        cons_putc(BACKSPACE);
  100636:	c7 04 24 00 01 00 00 	movl   $0x100,(%esp)
  10063d:	e8 2e fd ff ff       	call   100370 <cons_putc>
    switch(c){
    case C('P'):  // Process listing.
      procdump();
      break;
    case C('U'):  // Kill line.
      while(input.e > input.w &&
  100642:	8b 0d 7c 90 10 00    	mov    0x10907c,%ecx
  100648:	3b 0d 78 90 10 00    	cmp    0x109078,%ecx
  10064e:	0f 8e cc fe ff ff    	jle    100520 <console_intr+0x20>
            input.buf[(input.e-1) % INPUT_BUF] != '\n'){
  100654:	83 e9 01             	sub    $0x1,%ecx
  100657:	89 ca                	mov    %ecx,%edx
  100659:	c1 fa 1f             	sar    $0x1f,%edx
  10065c:	c1 ea 19             	shr    $0x19,%edx
  10065f:	8d 04 11             	lea    (%ecx,%edx,1),%eax
  100662:	83 e0 7f             	and    $0x7f,%eax
  100665:	29 d0                	sub    %edx,%eax
  100667:	80 b8 f4 8f 10 00 0a 	cmpb   $0xa,0x108ff4(%eax)
  10066e:	75 c0                	jne    100630 <console_intr+0x130>
  100670:	e9 ab fe ff ff       	jmp    100520 <console_intr+0x20>
      break;
    default:
      if(c != 0 && input.e < input.r+INPUT_BUF){
        input.buf[input.e++ % INPUT_BUF] = c;
        cons_putc(c);
        if(c == '\n' || c == C('D') || input.e == input.r+INPUT_BUF){
  100675:	a1 7c 90 10 00       	mov    0x10907c,%eax
          input.w = input.e;
  10067a:	a3 78 90 10 00       	mov    %eax,0x109078
          wakeup(&input.r);
  10067f:	c7 04 24 74 90 10 00 	movl   $0x109074,(%esp)
  100686:	e8 75 2c 00 00       	call   103300 <wakeup>
  10068b:	e9 90 fe ff ff       	jmp    100520 <console_intr+0x20>

00100690 <console_write>:
    release(&console_lock);
}

int
console_write(struct inode *ip, char *buf, int n)
{
  100690:	55                   	push   %ebp
  100691:	89 e5                	mov    %esp,%ebp
  100693:	57                   	push   %edi
  100694:	56                   	push   %esi
  100695:	53                   	push   %ebx
  100696:	83 ec 1c             	sub    $0x1c,%esp
  int i;

  iunlock(ip);
  100699:	8b 45 08             	mov    0x8(%ebp),%eax
    release(&console_lock);
}

int
console_write(struct inode *ip, char *buf, int n)
{
  10069c:	8b 75 10             	mov    0x10(%ebp),%esi
  10069f:	8b 7d 0c             	mov    0xc(%ebp),%edi
  int i;

  iunlock(ip);
  1006a2:	89 04 24             	mov    %eax,(%esp)
  1006a5:	e8 86 15 00 00       	call   101c30 <iunlock>
  acquire(&console_lock);
  1006aa:	c7 04 24 c0 77 10 00 	movl   $0x1077c0,(%esp)
  1006b1:	e8 da 38 00 00       	call   103f90 <acquire>
  for(i = 0; i < n; i++)
  1006b6:	85 f6                	test   %esi,%esi
  1006b8:	7e 19                	jle    1006d3 <console_write+0x43>
  1006ba:	31 db                	xor    %ebx,%ebx
  1006bc:	8d 74 26 00          	lea    0x0(%esi,%eiz,1),%esi
    cons_putc(buf[i] & 0xff);
  1006c0:	0f b6 14 1f          	movzbl (%edi,%ebx,1),%edx
{
  int i;

  iunlock(ip);
  acquire(&console_lock);
  for(i = 0; i < n; i++)
  1006c4:	83 c3 01             	add    $0x1,%ebx
    cons_putc(buf[i] & 0xff);
  1006c7:	89 14 24             	mov    %edx,(%esp)
  1006ca:	e8 a1 fc ff ff       	call   100370 <cons_putc>
{
  int i;

  iunlock(ip);
  acquire(&console_lock);
  for(i = 0; i < n; i++)
  1006cf:	39 de                	cmp    %ebx,%esi
  1006d1:	7f ed                	jg     1006c0 <console_write+0x30>
    cons_putc(buf[i] & 0xff);
  release(&console_lock);
  1006d3:	c7 04 24 c0 77 10 00 	movl   $0x1077c0,(%esp)
  1006da:	e8 71 38 00 00       	call   103f50 <release>
  ilock(ip);
  1006df:	8b 45 08             	mov    0x8(%ebp),%eax
  1006e2:	89 04 24             	mov    %eax,(%esp)
  1006e5:	e8 b6 15 00 00       	call   101ca0 <ilock>

  return n;
}
  1006ea:	83 c4 1c             	add    $0x1c,%esp
  1006ed:	89 f0                	mov    %esi,%eax
  1006ef:	5b                   	pop    %ebx
  1006f0:	5e                   	pop    %esi
  1006f1:	5f                   	pop    %edi
  1006f2:	5d                   	pop    %ebp
  1006f3:	c3                   	ret    
  1006f4:	8d b6 00 00 00 00    	lea    0x0(%esi),%esi
  1006fa:	8d bf 00 00 00 00    	lea    0x0(%edi),%edi

00100700 <printint>:
  cga_putc(c);
}

void
printint(int xx, int base, int sgn)
{
  100700:	55                   	push   %ebp
  100701:	89 e5                	mov    %esp,%ebp
  100703:	57                   	push   %edi
  100704:	56                   	push   %esi
  100705:	53                   	push   %ebx
  100706:	83 ec 2c             	sub    $0x2c,%esp
  static char digits[] = "0123456789ABCDEF";
  char buf[16];
  int i = 0, neg = 0;
  uint x;

  if(sgn && xx < 0){
  100709:	8b 55 10             	mov    0x10(%ebp),%edx
  cga_putc(c);
}

void
printint(int xx, int base, int sgn)
{
  10070c:	8b 45 08             	mov    0x8(%ebp),%eax
  10070f:	8b 75 0c             	mov    0xc(%ebp),%esi
  static char digits[] = "0123456789ABCDEF";
  char buf[16];
  int i = 0, neg = 0;
  uint x;

  if(sgn && xx < 0){
  100712:	85 d2                	test   %edx,%edx
  100714:	74 04                	je     10071a <printint+0x1a>
  100716:	85 c0                	test   %eax,%eax
  100718:	78 54                	js     10076e <printint+0x6e>
    neg = 1;
    x = 0 - xx;
  } else {
    x = xx;
  10071a:	31 ff                	xor    %edi,%edi
  10071c:	31 c9                	xor    %ecx,%ecx
  10071e:	8d 5d d8             	lea    -0x28(%ebp),%ebx
  100721:	8d b4 26 00 00 00 00 	lea    0x0(%esi,%eiz,1),%esi
  }

  do{
    buf[i++] = digits[x % base];
  100728:	31 d2                	xor    %edx,%edx
  10072a:	f7 f6                	div    %esi
  10072c:	0f b6 92 d9 5f 10 00 	movzbl 0x105fd9(%edx),%edx
  100733:	88 14 0b             	mov    %dl,(%ebx,%ecx,1)
  100736:	83 c1 01             	add    $0x1,%ecx
  }while((x /= base) != 0);
  100739:	85 c0                	test   %eax,%eax
  10073b:	75 eb                	jne    100728 <printint+0x28>
  if(neg)
  10073d:	85 ff                	test   %edi,%edi
  10073f:	74 08                	je     100749 <printint+0x49>
    buf[i++] = '-';
  100741:	c6 44 0d d8 2d       	movb   $0x2d,-0x28(%ebp,%ecx,1)
  100746:	83 c1 01             	add    $0x1,%ecx

  while(--i >= 0)
  100749:	8d 71 ff             	lea    -0x1(%ecx),%esi
  10074c:	01 f3                	add    %esi,%ebx
  10074e:	66 90                	xchg   %ax,%ax
    cons_putc(buf[i]);
  100750:	0f be 03             	movsbl (%ebx),%eax
    buf[i++] = digits[x % base];
  }while((x /= base) != 0);
  if(neg)
    buf[i++] = '-';

  while(--i >= 0)
  100753:	83 ee 01             	sub    $0x1,%esi
  100756:	83 eb 01             	sub    $0x1,%ebx
    cons_putc(buf[i]);
  100759:	89 04 24             	mov    %eax,(%esp)
  10075c:	e8 0f fc ff ff       	call   100370 <cons_putc>
    buf[i++] = digits[x % base];
  }while((x /= base) != 0);
  if(neg)
    buf[i++] = '-';

  while(--i >= 0)
  100761:	83 fe ff             	cmp    $0xffffffff,%esi
  100764:	75 ea                	jne    100750 <printint+0x50>
    cons_putc(buf[i]);
}
  100766:	83 c4 2c             	add    $0x2c,%esp
  100769:	5b                   	pop    %ebx
  10076a:	5e                   	pop    %esi
  10076b:	5f                   	pop    %edi
  10076c:	5d                   	pop    %ebp
  10076d:	c3                   	ret    
  int i = 0, neg = 0;
  uint x;

  if(sgn && xx < 0){
    neg = 1;
    x = 0 - xx;
  10076e:	f7 d8                	neg    %eax
  100770:	bf 01 00 00 00       	mov    $0x1,%edi
  100775:	eb a5                	jmp    10071c <printint+0x1c>
  100777:	89 f6                	mov    %esi,%esi
  100779:	8d bc 27 00 00 00 00 	lea    0x0(%edi,%eiz,1),%edi

00100780 <cprintf>:
}

// Print to the console. only understands %d, %x, %p, %s.
void
cprintf(char *fmt, ...)
{
  100780:	55                   	push   %ebp
  100781:	89 e5                	mov    %esp,%ebp
  100783:	57                   	push   %edi
  100784:	56                   	push   %esi
  100785:	53                   	push   %ebx
  100786:	83 ec 2c             	sub    $0x2c,%esp
  int i, c, state, locking;
  uint *argp;
  char *s;

  locking = use_console_lock;
  100789:	a1 a4 77 10 00       	mov    0x1077a4,%eax
  if(locking)
  10078e:	85 c0                	test   %eax,%eax
{
  int i, c, state, locking;
  uint *argp;
  char *s;

  locking = use_console_lock;
  100790:	89 45 e4             	mov    %eax,-0x1c(%ebp)
  if(locking)
  100793:	0f 85 67 01 00 00    	jne    100900 <cprintf+0x180>
    acquire(&console_lock);

  argp = (uint*)(void*)&fmt + 1;
  state = 0;
  for(i = 0; fmt[i]; i++){
  100799:	8b 55 08             	mov    0x8(%ebp),%edx
  10079c:	0f b6 02             	movzbl (%edx),%eax
  10079f:	84 c0                	test   %al,%al
  1007a1:	0f 84 81 00 00 00    	je     100828 <cprintf+0xa8>

  locking = use_console_lock;
  if(locking)
    acquire(&console_lock);

  argp = (uint*)(void*)&fmt + 1;
  1007a7:	8d 7d 0c             	lea    0xc(%ebp),%edi
  1007aa:	31 db                	xor    %ebx,%ebx
  1007ac:	31 f6                	xor    %esi,%esi
  1007ae:	eb 1b                	jmp    1007cb <cprintf+0x4b>
  state = 0;
  for(i = 0; fmt[i]; i++){
    c = fmt[i] & 0xff;
    switch(state){
    case 0:
      if(c == '%')
  1007b0:	83 f8 25             	cmp    $0x25,%eax
  1007b3:	0f 85 8f 00 00 00    	jne    100848 <cprintf+0xc8>
  1007b9:	be 25 00 00 00       	mov    $0x25,%esi
  1007be:	66 90                	xchg   %ax,%ax
  if(locking)
    acquire(&console_lock);

  argp = (uint*)(void*)&fmt + 1;
  state = 0;
  for(i = 0; fmt[i]; i++){
  1007c0:	83 c3 01             	add    $0x1,%ebx
  1007c3:	0f b6 04 1a          	movzbl (%edx,%ebx,1),%eax
  1007c7:	84 c0                	test   %al,%al
  1007c9:	74 5d                	je     100828 <cprintf+0xa8>
    c = fmt[i] & 0xff;
    switch(state){
  1007cb:	85 f6                	test   %esi,%esi
    acquire(&console_lock);

  argp = (uint*)(void*)&fmt + 1;
  state = 0;
  for(i = 0; fmt[i]; i++){
    c = fmt[i] & 0xff;
  1007cd:	0f b6 c0             	movzbl %al,%eax
    switch(state){
  1007d0:	74 de                	je     1007b0 <cprintf+0x30>
  1007d2:	83 fe 25             	cmp    $0x25,%esi
  1007d5:	75 e9                	jne    1007c0 <cprintf+0x40>
      else
        cons_putc(c);
      break;
    
    case '%':
      switch(c){
  1007d7:	83 f8 70             	cmp    $0x70,%eax
  1007da:	0f 84 82 00 00 00    	je     100862 <cprintf+0xe2>
  1007e0:	7f 76                	jg     100858 <cprintf+0xd8>
  1007e2:	83 f8 25             	cmp    $0x25,%eax
  1007e5:	8d 76 00             	lea    0x0(%esi),%esi
  1007e8:	0f 84 fa 00 00 00    	je     1008e8 <cprintf+0x168>
  1007ee:	83 f8 64             	cmp    $0x64,%eax
  1007f1:	8d b4 26 00 00 00 00 	lea    0x0(%esi,%eiz,1),%esi
  1007f8:	0f 84 c2 00 00 00    	je     1008c0 <cprintf+0x140>
      case '%':
        cons_putc('%');
        break;
      default:
        // Print unknown % sequence to draw attention.
        cons_putc('%');
  1007fe:	89 45 e0             	mov    %eax,-0x20(%ebp)
  if(locking)
    acquire(&console_lock);

  argp = (uint*)(void*)&fmt + 1;
  state = 0;
  for(i = 0; fmt[i]; i++){
  100801:	83 c3 01             	add    $0x1,%ebx
        cons_putc('%');
        break;
      default:
        // Print unknown % sequence to draw attention.
        cons_putc('%');
        cons_putc(c);
  100804:	31 f6                	xor    %esi,%esi
      case '%':
        cons_putc('%');
        break;
      default:
        // Print unknown % sequence to draw attention.
        cons_putc('%');
  100806:	c7 04 24 25 00 00 00 	movl   $0x25,(%esp)
  10080d:	e8 5e fb ff ff       	call   100370 <cons_putc>
        cons_putc(c);
  100812:	8b 45 e0             	mov    -0x20(%ebp),%eax
  100815:	89 04 24             	mov    %eax,(%esp)
  100818:	e8 53 fb ff ff       	call   100370 <cons_putc>
  10081d:	8b 55 08             	mov    0x8(%ebp),%edx
  if(locking)
    acquire(&console_lock);

  argp = (uint*)(void*)&fmt + 1;
  state = 0;
  for(i = 0; fmt[i]; i++){
  100820:	0f b6 04 1a          	movzbl (%edx,%ebx,1),%eax
  100824:	84 c0                	test   %al,%al
  100826:	75 a3                	jne    1007cb <cprintf+0x4b>
      state = 0;
      break;
    }
  }

  if(locking)
  100828:	8b 4d e4             	mov    -0x1c(%ebp),%ecx
  10082b:	85 c9                	test   %ecx,%ecx
  10082d:	74 0c                	je     10083b <cprintf+0xbb>
    release(&console_lock);
  10082f:	c7 04 24 c0 77 10 00 	movl   $0x1077c0,(%esp)
  100836:	e8 15 37 00 00       	call   103f50 <release>
}
  10083b:	83 c4 2c             	add    $0x2c,%esp
  10083e:	5b                   	pop    %ebx
  10083f:	5e                   	pop    %esi
  100840:	5f                   	pop    %edi
  100841:	5d                   	pop    %ebp
  100842:	c3                   	ret    
  100843:	90                   	nop
  100844:	8d 74 26 00          	lea    0x0(%esi,%eiz,1),%esi
    switch(state){
    case 0:
      if(c == '%')
        state = '%';
      else
        cons_putc(c);
  100848:	89 04 24             	mov    %eax,(%esp)
  10084b:	e8 20 fb ff ff       	call   100370 <cons_putc>
  100850:	8b 55 08             	mov    0x8(%ebp),%edx
  100853:	e9 68 ff ff ff       	jmp    1007c0 <cprintf+0x40>
      break;
    
    case '%':
      switch(c){
  100858:	83 f8 73             	cmp    $0x73,%eax
  10085b:	74 33                	je     100890 <cprintf+0x110>
  10085d:	83 f8 78             	cmp    $0x78,%eax
  100860:	75 9c                	jne    1007fe <cprintf+0x7e>
      case 'd':
        printint(*argp++, 10, 1);
        break;
      case 'x':
      case 'p':
        printint(*argp++, 16, 0);
  100862:	8b 07                	mov    (%edi),%eax
  100864:	31 f6                	xor    %esi,%esi
  100866:	83 c7 04             	add    $0x4,%edi
  100869:	c7 44 24 08 00 00 00 	movl   $0x0,0x8(%esp)
  100870:	00 
  100871:	c7 44 24 04 10 00 00 	movl   $0x10,0x4(%esp)
  100878:	00 
  100879:	89 04 24             	mov    %eax,(%esp)
  10087c:	e8 7f fe ff ff       	call   100700 <printint>
  100881:	8b 55 08             	mov    0x8(%ebp),%edx
        break;
  100884:	e9 37 ff ff ff       	jmp    1007c0 <cprintf+0x40>
  100889:	8d b4 26 00 00 00 00 	lea    0x0(%esi,%eiz,1),%esi
      case 's':
        s = (char*)*argp++;
  100890:	8b 37                	mov    (%edi),%esi
  100892:	83 c7 04             	add    $0x4,%edi
        if(s == 0)
  100895:	85 f6                	test   %esi,%esi
  100897:	74 78                	je     100911 <cprintf+0x191>
          s = "(null)";
        for(; *s; s++)
  100899:	0f b6 06             	movzbl (%esi),%eax
  10089c:	84 c0                	test   %al,%al
  10089e:	74 18                	je     1008b8 <cprintf+0x138>
          cons_putc(*s);
  1008a0:	0f be c0             	movsbl %al,%eax
        break;
      case 's':
        s = (char*)*argp++;
        if(s == 0)
          s = "(null)";
        for(; *s; s++)
  1008a3:	83 c6 01             	add    $0x1,%esi
          cons_putc(*s);
  1008a6:	89 04 24             	mov    %eax,(%esp)
  1008a9:	e8 c2 fa ff ff       	call   100370 <cons_putc>
        break;
      case 's':
        s = (char*)*argp++;
        if(s == 0)
          s = "(null)";
        for(; *s; s++)
  1008ae:	0f b6 06             	movzbl (%esi),%eax
  1008b1:	84 c0                	test   %al,%al
  1008b3:	75 eb                	jne    1008a0 <cprintf+0x120>
  1008b5:	8b 55 08             	mov    0x8(%ebp),%edx
        cons_putc('%');
        break;
      default:
        // Print unknown % sequence to draw attention.
        cons_putc('%');
        cons_putc(c);
  1008b8:	31 f6                	xor    %esi,%esi
  1008ba:	e9 01 ff ff ff       	jmp    1007c0 <cprintf+0x40>
  1008bf:	90                   	nop
      break;
    
    case '%':
      switch(c){
      case 'd':
        printint(*argp++, 10, 1);
  1008c0:	8b 07                	mov    (%edi),%eax
  1008c2:	31 f6                	xor    %esi,%esi
  1008c4:	83 c7 04             	add    $0x4,%edi
  1008c7:	c7 44 24 08 01 00 00 	movl   $0x1,0x8(%esp)
  1008ce:	00 
  1008cf:	c7 44 24 04 0a 00 00 	movl   $0xa,0x4(%esp)
  1008d6:	00 
  1008d7:	89 04 24             	mov    %eax,(%esp)
  1008da:	e8 21 fe ff ff       	call   100700 <printint>
  1008df:	8b 55 08             	mov    0x8(%ebp),%edx
        break;
  1008e2:	e9 d9 fe ff ff       	jmp    1007c0 <cprintf+0x40>
  1008e7:	90                   	nop
          s = "(null)";
        for(; *s; s++)
          cons_putc(*s);
        break;
      case '%':
        cons_putc('%');
  1008e8:	c7 04 24 25 00 00 00 	movl   $0x25,(%esp)
  1008ef:	31 f6                	xor    %esi,%esi
  1008f1:	e8 7a fa ff ff       	call   100370 <cons_putc>
  1008f6:	8b 55 08             	mov    0x8(%ebp),%edx
        break;
  1008f9:	e9 c2 fe ff ff       	jmp    1007c0 <cprintf+0x40>
  1008fe:	66 90                	xchg   %ax,%ax
  uint *argp;
  char *s;

  locking = use_console_lock;
  if(locking)
    acquire(&console_lock);
  100900:	c7 04 24 c0 77 10 00 	movl   $0x1077c0,(%esp)
  100907:	e8 84 36 00 00       	call   103f90 <acquire>
  10090c:	e9 88 fe ff ff       	jmp    100799 <cprintf+0x19>
      case 'p':
        printint(*argp++, 16, 0);
        break;
      case 's':
        s = (char*)*argp++;
        if(s == 0)
  100911:	be bf 5f 10 00       	mov    $0x105fbf,%esi
  100916:	eb 81                	jmp    100899 <cprintf+0x119>
  100918:	90                   	nop
  100919:	8d b4 26 00 00 00 00 	lea    0x0(%esi,%eiz,1),%esi

00100920 <panic>:
  ioapic_enable(IRQ_KBD, 0);
}

void
panic(char *s)
{
  100920:	55                   	push   %ebp
  100921:	89 e5                	mov    %esp,%ebp
  100923:	56                   	push   %esi
  100924:	53                   	push   %ebx
  100925:	83 ec 40             	sub    $0x40,%esp
  int i;
  uint pcs[10];
  
  __asm __volatile("cli");
  use_console_lock = 0;
  100928:	c7 05 a4 77 10 00 00 	movl   $0x0,0x1077a4
  10092f:	00 00 00 
panic(char *s)
{
  int i;
  uint pcs[10];
  
  __asm __volatile("cli");
  100932:	fa                   	cli    
  use_console_lock = 0;
  cprintf("cpu%d: panic: ", cpu());
  100933:	e8 98 1f 00 00       	call   1028d0 <cpu>
  cprintf(s, 0);
  cprintf("\n", 0);
  getcallerpcs(&s, pcs);
  100938:	8d 75 d0             	lea    -0x30(%ebp),%esi
  10093b:	31 db                	xor    %ebx,%ebx
  int i;
  uint pcs[10];
  
  __asm __volatile("cli");
  use_console_lock = 0;
  cprintf("cpu%d: panic: ", cpu());
  10093d:	c7 04 24 c6 5f 10 00 	movl   $0x105fc6,(%esp)
  100944:	89 44 24 04          	mov    %eax,0x4(%esp)
  100948:	e8 33 fe ff ff       	call   100780 <cprintf>
  cprintf(s, 0);
  10094d:	8b 45 08             	mov    0x8(%ebp),%eax
  100950:	c7 44 24 04 00 00 00 	movl   $0x0,0x4(%esp)
  100957:	00 
  100958:	89 04 24             	mov    %eax,(%esp)
  10095b:	e8 20 fe ff ff       	call   100780 <cprintf>
  cprintf("\n", 0);
  100960:	c7 44 24 04 00 00 00 	movl   $0x0,0x4(%esp)
  100967:	00 
  100968:	c7 04 24 13 64 10 00 	movl   $0x106413,(%esp)
  10096f:	e8 0c fe ff ff       	call   100780 <cprintf>
  getcallerpcs(&s, pcs);
  100974:	8d 45 08             	lea    0x8(%ebp),%eax
  100977:	89 74 24 04          	mov    %esi,0x4(%esp)
  10097b:	89 04 24             	mov    %eax,(%esp)
  10097e:	e8 6d 34 00 00       	call   103df0 <getcallerpcs>
  100983:	90                   	nop
  100984:	8d 74 26 00          	lea    0x0(%esi,%eiz,1),%esi
  for(i=0; i<10; i++)
    cprintf(" %p", pcs[i]);
  100988:	8b 04 9e             	mov    (%esi,%ebx,4),%eax
  use_console_lock = 0;
  cprintf("cpu%d: panic: ", cpu());
  cprintf(s, 0);
  cprintf("\n", 0);
  getcallerpcs(&s, pcs);
  for(i=0; i<10; i++)
  10098b:	83 c3 01             	add    $0x1,%ebx
    cprintf(" %p", pcs[i]);
  10098e:	c7 04 24 d5 5f 10 00 	movl   $0x105fd5,(%esp)
  100995:	89 44 24 04          	mov    %eax,0x4(%esp)
  100999:	e8 e2 fd ff ff       	call   100780 <cprintf>
  use_console_lock = 0;
  cprintf("cpu%d: panic: ", cpu());
  cprintf(s, 0);
  cprintf("\n", 0);
  getcallerpcs(&s, pcs);
  for(i=0; i<10; i++)
  10099e:	83 fb 0a             	cmp    $0xa,%ebx
  1009a1:	75 e5                	jne    100988 <panic+0x68>
    cprintf(" %p", pcs[i]);
  panicked = 1; // freeze other CPU
  1009a3:	c7 05 a0 77 10 00 01 	movl   $0x1,0x1077a0
  1009aa:	00 00 00 
  1009ad:	eb fe                	jmp    1009ad <panic+0x8d>
  1009af:	90                   	nop

001009b0 <exec>:
#include "x86.h"
#include "elf.h"

int
exec(char *path, char **argv)
{
  1009b0:	55                   	push   %ebp
  1009b1:	89 e5                	mov    %esp,%ebp
  1009b3:	57                   	push   %edi
  1009b4:	56                   	push   %esi
  1009b5:	53                   	push   %ebx
  1009b6:	81 ec 9c 00 00 00    	sub    $0x9c,%esp
  uint sz, sp, argp;
  struct elfhdr elf;
  struct inode *ip;
  struct proghdr ph;

  if((ip = namei(path)) == 0)
  1009bc:	8b 45 08             	mov    0x8(%ebp),%eax
  1009bf:	89 04 24             	mov    %eax,(%esp)
  1009c2:	e8 99 15 00 00       	call   101f60 <namei>
  1009c7:	89 c3                	mov    %eax,%ebx
  1009c9:	b8 ff ff ff ff       	mov    $0xffffffff,%eax
  1009ce:	85 db                	test   %ebx,%ebx
  1009d0:	0f 84 81 03 00 00    	je     100d57 <exec+0x3a7>
    return -1;
  ilock(ip);
  1009d6:	89 1c 24             	mov    %ebx,(%esp)
  1009d9:	e8 c2 12 00 00       	call   101ca0 <ilock>
  // Compute memory size of new process.
  mem = 0;
  sz = 0;

  // Program segments.
  if(readi(ip, (char*)&elf, 0, sizeof(elf)) < sizeof(elf))
  1009de:	8d 45 94             	lea    -0x6c(%ebp),%eax
  1009e1:	c7 44 24 0c 34 00 00 	movl   $0x34,0xc(%esp)
  1009e8:	00 
  1009e9:	c7 44 24 08 00 00 00 	movl   $0x0,0x8(%esp)
  1009f0:	00 
  1009f1:	89 44 24 04          	mov    %eax,0x4(%esp)
  1009f5:	89 1c 24             	mov    %ebx,(%esp)
  1009f8:	e8 63 0a 00 00       	call   101460 <readi>
  1009fd:	83 f8 33             	cmp    $0x33,%eax
  100a00:	0f 86 74 03 00 00    	jbe    100d7a <exec+0x3ca>
    goto bad;
  if(elf.magic != ELF_MAGIC)
  100a06:	81 7d 94 7f 45 4c 46 	cmpl   $0x464c457f,-0x6c(%ebp)
  100a0d:	0f 85 67 03 00 00    	jne    100d7a <exec+0x3ca>
    goto bad;
  for(i=0, off=elf.phoff; i<elf.phnum; i++, off+=sizeof(ph)){
  100a13:	66 83 7d c0 00       	cmpw   $0x0,-0x40(%ebp)
  100a18:	bf ff 1f 00 00       	mov    $0x1fff,%edi
  100a1d:	8b 45 b0             	mov    -0x50(%ebp),%eax
  100a20:	74 6b                	je     100a8d <exec+0xdd>
  100a22:	89 c7                	mov    %eax,%edi
  100a24:	31 f6                	xor    %esi,%esi
  100a26:	c7 45 84 00 00 00 00 	movl   $0x0,-0x7c(%ebp)
  100a2d:	eb 0f                	jmp    100a3e <exec+0x8e>
  100a2f:	90                   	nop
  100a30:	0f b7 45 c0          	movzwl -0x40(%ebp),%eax
  100a34:	83 c6 01             	add    $0x1,%esi
  100a37:	39 f0                	cmp    %esi,%eax
  100a39:	7e 49                	jle    100a84 <exec+0xd4>
  100a3b:	83 c7 20             	add    $0x20,%edi
    if(readi(ip, (char*)&ph, off, sizeof(ph)) != sizeof(ph))
  100a3e:	8d 55 c8             	lea    -0x38(%ebp),%edx
  100a41:	c7 44 24 0c 20 00 00 	movl   $0x20,0xc(%esp)
  100a48:	00 
  100a49:	89 7c 24 08          	mov    %edi,0x8(%esp)
  100a4d:	89 54 24 04          	mov    %edx,0x4(%esp)
  100a51:	89 1c 24             	mov    %ebx,(%esp)
  100a54:	e8 07 0a 00 00       	call   101460 <readi>
  100a59:	83 f8 20             	cmp    $0x20,%eax
  100a5c:	0f 85 18 03 00 00    	jne    100d7a <exec+0x3ca>
      goto bad;
    if(ph.type != ELF_PROG_LOAD)
  100a62:	83 7d c8 01          	cmpl   $0x1,-0x38(%ebp)
  100a66:	75 c8                	jne    100a30 <exec+0x80>
      continue;
    if(ph.memsz < ph.filesz)
  100a68:	8b 45 dc             	mov    -0x24(%ebp),%eax
  100a6b:	3b 45 d8             	cmp    -0x28(%ebp),%eax
  100a6e:	66 90                	xchg   %ax,%ax
  100a70:	0f 82 04 03 00 00    	jb     100d7a <exec+0x3ca>
      goto bad;
    sz += ph.memsz;
  100a76:	01 45 84             	add    %eax,-0x7c(%ebp)
  // Program segments.
  if(readi(ip, (char*)&elf, 0, sizeof(elf)) < sizeof(elf))
    goto bad;
  if(elf.magic != ELF_MAGIC)
    goto bad;
  for(i=0, off=elf.phoff; i<elf.phnum; i++, off+=sizeof(ph)){
  100a79:	83 c6 01             	add    $0x1,%esi
  100a7c:	0f b7 45 c0          	movzwl -0x40(%ebp),%eax
  100a80:	39 f0                	cmp    %esi,%eax
  100a82:	7f b7                	jg     100a3b <exec+0x8b>
  100a84:	8b 7d 84             	mov    -0x7c(%ebp),%edi
  100a87:	81 c7 ff 1f 00 00    	add    $0x1fff,%edi
    sz += ph.memsz;
  }
  
  // Arguments.
  arglen = 0;
  for(argc=0; argv[argc]; argc++)
  100a8d:	8b 4d 0c             	mov    0xc(%ebp),%ecx
  100a90:	31 f6                	xor    %esi,%esi
  100a92:	c7 85 78 ff ff ff 00 	movl   $0x0,-0x88(%ebp)
  100a99:	00 00 00 
  100a9c:	8b 11                	mov    (%ecx),%edx
  100a9e:	85 d2                	test   %edx,%edx
  100aa0:	0f 84 ec 02 00 00    	je     100d92 <exec+0x3e2>
  100aa6:	89 7d 84             	mov    %edi,-0x7c(%ebp)
  100aa9:	8b 7d 0c             	mov    0xc(%ebp),%edi
  100aac:	89 5d 80             	mov    %ebx,-0x80(%ebp)
  100aaf:	8b 9d 78 ff ff ff    	mov    -0x88(%ebp),%ebx
  100ab5:	8d 76 00             	lea    0x0(%esi),%esi
    arglen += strlen(argv[argc]) + 1;
  100ab8:	89 14 24             	mov    %edx,(%esp)
    sz += ph.memsz;
  }
  
  // Arguments.
  arglen = 0;
  for(argc=0; argv[argc]; argc++)
  100abb:	83 c3 01             	add    $0x1,%ebx
    arglen += strlen(argv[argc]) + 1;
  100abe:	e8 1d 37 00 00       	call   1041e0 <strlen>
    sz += ph.memsz;
  }
  
  // Arguments.
  arglen = 0;
  for(argc=0; argv[argc]; argc++)
  100ac3:	8b 14 9f             	mov    (%edi,%ebx,4),%edx
  100ac6:	89 d9                	mov    %ebx,%ecx
    arglen += strlen(argv[argc]) + 1;
  100ac8:	01 f0                	add    %esi,%eax
    sz += ph.memsz;
  }
  
  // Arguments.
  arglen = 0;
  for(argc=0; argv[argc]; argc++)
  100aca:	85 d2                	test   %edx,%edx
    arglen += strlen(argv[argc]) + 1;
  100acc:	8d 70 01             	lea    0x1(%eax),%esi
    sz += ph.memsz;
  }
  
  // Arguments.
  arglen = 0;
  for(argc=0; argv[argc]; argc++)
  100acf:	75 e7                	jne    100ab8 <exec+0x108>
  100ad1:	89 9d 78 ff ff ff    	mov    %ebx,-0x88(%ebp)
  100ad7:	8b 7d 84             	mov    -0x7c(%ebp),%edi
  100ada:	83 c0 04             	add    $0x4,%eax
  100add:	8b 5d 80             	mov    -0x80(%ebp),%ebx
  100ae0:	83 e0 fc             	and    $0xfffffffc,%eax
  100ae3:	89 85 7c ff ff ff    	mov    %eax,-0x84(%ebp)
  100ae9:	8d 44 88 04          	lea    0x4(%eax,%ecx,4),%eax
  100aed:	89 8d 74 ff ff ff    	mov    %ecx,-0x8c(%ebp)

  // Stack.
  sz += PAGE;
  
  // Allocate program memory.
  sz = (sz+PAGE-1) & ~(PAGE-1);
  100af3:	8d 3c 38             	lea    (%eax,%edi,1),%edi
  100af6:	89 7d 80             	mov    %edi,-0x80(%ebp)
  100af9:	81 65 80 00 f0 ff ff 	andl   $0xfffff000,-0x80(%ebp)
  mem = kalloc(sz);
  100b00:	8b 4d 80             	mov    -0x80(%ebp),%ecx
  100b03:	89 0c 24             	mov    %ecx,(%esp)
  100b06:	e8 35 18 00 00       	call   102340 <kalloc>
  if(mem == 0)
  100b0b:	85 c0                	test   %eax,%eax
  // Stack.
  sz += PAGE;
  
  // Allocate program memory.
  sz = (sz+PAGE-1) & ~(PAGE-1);
  mem = kalloc(sz);
  100b0d:	89 45 84             	mov    %eax,-0x7c(%ebp)
  if(mem == 0)
  100b10:	0f 84 64 02 00 00    	je     100d7a <exec+0x3ca>
    goto bad;
  memset(mem, 0, sz);
  100b16:	8b 45 80             	mov    -0x80(%ebp),%eax
  100b19:	c7 44 24 04 00 00 00 	movl   $0x0,0x4(%esp)
  100b20:	00 
  100b21:	89 44 24 08          	mov    %eax,0x8(%esp)
  100b25:	8b 55 84             	mov    -0x7c(%ebp),%edx
  100b28:	89 14 24             	mov    %edx,(%esp)
  100b2b:	e8 d0 34 00 00       	call   104000 <memset>

  // Load program into memory.
  for(i=0, off=elf.phoff; i<elf.phnum; i++, off+=sizeof(ph)){
  100b30:	8b 7d b0             	mov    -0x50(%ebp),%edi
  100b33:	66 83 7d c0 00       	cmpw   $0x0,-0x40(%ebp)
  100b38:	0f 84 ab 00 00 00    	je     100be9 <exec+0x239>
  100b3e:	31 f6                	xor    %esi,%esi
  100b40:	eb 18                	jmp    100b5a <exec+0x1aa>
  100b42:	8d b6 00 00 00 00    	lea    0x0(%esi),%esi
  100b48:	0f b7 45 c0          	movzwl -0x40(%ebp),%eax
  100b4c:	83 c6 01             	add    $0x1,%esi
  100b4f:	39 f0                	cmp    %esi,%eax
  100b51:	0f 8e 92 00 00 00    	jle    100be9 <exec+0x239>
  100b57:	83 c7 20             	add    $0x20,%edi
    if(readi(ip, (char*)&ph, off, sizeof(ph)) != sizeof(ph))
  100b5a:	8d 4d c8             	lea    -0x38(%ebp),%ecx
  100b5d:	c7 44 24 0c 20 00 00 	movl   $0x20,0xc(%esp)
  100b64:	00 
  100b65:	89 7c 24 08          	mov    %edi,0x8(%esp)
  100b69:	89 4c 24 04          	mov    %ecx,0x4(%esp)
  100b6d:	89 1c 24             	mov    %ebx,(%esp)
  100b70:	e8 eb 08 00 00       	call   101460 <readi>
  100b75:	83 f8 20             	cmp    $0x20,%eax
  100b78:	0f 85 ea 01 00 00    	jne    100d68 <exec+0x3b8>
      goto bad;
    if(ph.type != ELF_PROG_LOAD)
  100b7e:	83 7d c8 01          	cmpl   $0x1,-0x38(%ebp)
  100b82:	75 c4                	jne    100b48 <exec+0x198>
      continue;
    if(ph.va + ph.memsz > sz)
  100b84:	8b 45 d0             	mov    -0x30(%ebp),%eax
  100b87:	8b 55 dc             	mov    -0x24(%ebp),%edx
  100b8a:	01 c2                	add    %eax,%edx
  100b8c:	39 55 80             	cmp    %edx,-0x80(%ebp)
  100b8f:	0f 82 d3 01 00 00    	jb     100d68 <exec+0x3b8>
      goto bad;
    if(readi(ip, mem + ph.va, ph.offset, ph.filesz) != ph.filesz)
  100b95:	8b 55 d8             	mov    -0x28(%ebp),%edx
  100b98:	89 54 24 0c          	mov    %edx,0xc(%esp)
  100b9c:	8b 55 cc             	mov    -0x34(%ebp),%edx
  100b9f:	89 54 24 08          	mov    %edx,0x8(%esp)
  100ba3:	03 45 84             	add    -0x7c(%ebp),%eax
  100ba6:	89 1c 24             	mov    %ebx,(%esp)
  100ba9:	89 44 24 04          	mov    %eax,0x4(%esp)
  100bad:	e8 ae 08 00 00       	call   101460 <readi>
  100bb2:	3b 45 d8             	cmp    -0x28(%ebp),%eax
  100bb5:	0f 85 ad 01 00 00    	jne    100d68 <exec+0x3b8>
      goto bad;
    memset(mem + ph.va + ph.filesz, 0, ph.memsz - ph.filesz);
  100bbb:	8b 55 dc             	mov    -0x24(%ebp),%edx
  if(mem == 0)
    goto bad;
  memset(mem, 0, sz);

  // Load program into memory.
  for(i=0, off=elf.phoff; i<elf.phnum; i++, off+=sizeof(ph)){
  100bbe:	83 c6 01             	add    $0x1,%esi
      continue;
    if(ph.va + ph.memsz > sz)
      goto bad;
    if(readi(ip, mem + ph.va, ph.offset, ph.filesz) != ph.filesz)
      goto bad;
    memset(mem + ph.va + ph.filesz, 0, ph.memsz - ph.filesz);
  100bc1:	c7 44 24 04 00 00 00 	movl   $0x0,0x4(%esp)
  100bc8:	00 
  100bc9:	29 c2                	sub    %eax,%edx
  100bcb:	89 54 24 08          	mov    %edx,0x8(%esp)
  100bcf:	03 45 d0             	add    -0x30(%ebp),%eax
  100bd2:	03 45 84             	add    -0x7c(%ebp),%eax
  100bd5:	89 04 24             	mov    %eax,(%esp)
  100bd8:	e8 23 34 00 00       	call   104000 <memset>
  if(mem == 0)
    goto bad;
  memset(mem, 0, sz);

  // Load program into memory.
  for(i=0, off=elf.phoff; i<elf.phnum; i++, off+=sizeof(ph)){
  100bdd:	0f b7 45 c0          	movzwl -0x40(%ebp),%eax
  100be1:	39 f0                	cmp    %esi,%eax
  100be3:	0f 8f 6e ff ff ff    	jg     100b57 <exec+0x1a7>
      goto bad;
    if(readi(ip, mem + ph.va, ph.offset, ph.filesz) != ph.filesz)
      goto bad;
    memset(mem + ph.va + ph.filesz, 0, ph.memsz - ph.filesz);
  }
  iunlockput(ip);
  100be9:	89 1c 24             	mov    %ebx,(%esp)
  100bec:	e8 8f 10 00 00       	call   101c80 <iunlockput>
  
  // Initialize stack.
  sp = sz;
  argp = sz - arglen - 4*(argc+1);
  100bf1:	8b 85 78 ff ff ff    	mov    -0x88(%ebp),%eax
  100bf7:	8b 55 80             	mov    -0x80(%ebp),%edx
  100bfa:	2b 95 7c ff ff ff    	sub    -0x84(%ebp),%edx

  // Copy argv strings and pointers to stack.
  *(uint*)(mem+argp + 4*argc) = 0;  // argv[argc]
  100c00:	8b 4d 84             	mov    -0x7c(%ebp),%ecx
  }
  iunlockput(ip);
  
  // Initialize stack.
  sp = sz;
  argp = sz - arglen - 4*(argc+1);
  100c03:	f7 d0                	not    %eax
  100c05:	8d 04 82             	lea    (%edx,%eax,4),%eax

  // Copy argv strings and pointers to stack.
  *(uint*)(mem+argp + 4*argc) = 0;  // argv[argc]
  100c08:	8b 95 78 ff ff ff    	mov    -0x88(%ebp),%edx
  }
  iunlockput(ip);
  
  // Initialize stack.
  sp = sz;
  argp = sz - arglen - 4*(argc+1);
  100c0e:	89 85 7c ff ff ff    	mov    %eax,-0x84(%ebp)

  // Copy argv strings and pointers to stack.
  *(uint*)(mem+argp + 4*argc) = 0;  // argv[argc]
  for(i=argc-1; i>=0; i--){
  100c14:	89 d7                	mov    %edx,%edi
  100c16:	83 ef 01             	sub    $0x1,%edi
  // Initialize stack.
  sp = sz;
  argp = sz - arglen - 4*(argc+1);

  // Copy argv strings and pointers to stack.
  *(uint*)(mem+argp + 4*argc) = 0;  // argv[argc]
  100c19:	8d 04 90             	lea    (%eax,%edx,4),%eax
  for(i=argc-1; i>=0; i--){
  100c1c:	83 ff ff             	cmp    $0xffffffff,%edi
  // Initialize stack.
  sp = sz;
  argp = sz - arglen - 4*(argc+1);

  // Copy argv strings and pointers to stack.
  *(uint*)(mem+argp + 4*argc) = 0;  // argv[argc]
  100c1f:	c7 04 08 00 00 00 00 	movl   $0x0,(%eax,%ecx,1)
  for(i=argc-1; i>=0; i--){
  100c26:	74 62                	je     100c8a <exec+0x2da>
  100c28:	8b 75 0c             	mov    0xc(%ebp),%esi
  100c2b:	8d 04 bd 00 00 00 00 	lea    0x0(,%edi,4),%eax
  100c32:	89 ca                	mov    %ecx,%edx
  100c34:	8b 5d 80             	mov    -0x80(%ebp),%ebx
  100c37:	01 c6                	add    %eax,%esi
  100c39:	03 85 7c ff ff ff    	add    -0x84(%ebp),%eax
  100c3f:	01 c2                	add    %eax,%edx
  100c41:	8d b4 26 00 00 00 00 	lea    0x0(%esi,%eiz,1),%esi
    len = strlen(argv[i]) + 1;
  100c48:	8b 06                	mov    (%esi),%eax
  sp = sz;
  argp = sz - arglen - 4*(argc+1);

  // Copy argv strings and pointers to stack.
  *(uint*)(mem+argp + 4*argc) = 0;  // argv[argc]
  for(i=argc-1; i>=0; i--){
  100c4a:	83 ef 01             	sub    $0x1,%edi
    len = strlen(argv[i]) + 1;
  100c4d:	89 04 24             	mov    %eax,(%esp)
  100c50:	89 95 70 ff ff ff    	mov    %edx,-0x90(%ebp)
  100c56:	e8 85 35 00 00       	call   1041e0 <strlen>
    sp -= len;
  100c5b:	83 c0 01             	add    $0x1,%eax
  100c5e:	29 c3                	sub    %eax,%ebx
    memmove(mem+sp, argv[i], len);
  100c60:	89 44 24 08          	mov    %eax,0x8(%esp)
  100c64:	8b 06                	mov    (%esi),%eax
  sp = sz;
  argp = sz - arglen - 4*(argc+1);

  // Copy argv strings and pointers to stack.
  *(uint*)(mem+argp + 4*argc) = 0;  // argv[argc]
  for(i=argc-1; i>=0; i--){
  100c66:	83 ee 04             	sub    $0x4,%esi
    len = strlen(argv[i]) + 1;
    sp -= len;
    memmove(mem+sp, argv[i], len);
  100c69:	89 44 24 04          	mov    %eax,0x4(%esp)
  100c6d:	8b 45 84             	mov    -0x7c(%ebp),%eax
  100c70:	01 d8                	add    %ebx,%eax
  100c72:	89 04 24             	mov    %eax,(%esp)
  100c75:	e8 16 34 00 00       	call   104090 <memmove>
    *(uint*)(mem+argp + 4*i) = sp;  // argv[i]
  100c7a:	8b 95 70 ff ff ff    	mov    -0x90(%ebp),%edx
  100c80:	89 1a                	mov    %ebx,(%edx)
  sp = sz;
  argp = sz - arglen - 4*(argc+1);

  // Copy argv strings and pointers to stack.
  *(uint*)(mem+argp + 4*argc) = 0;  // argv[argc]
  for(i=argc-1; i>=0; i--){
  100c82:	83 ea 04             	sub    $0x4,%edx
  100c85:	83 ff ff             	cmp    $0xffffffff,%edi
  100c88:	75 be                	jne    100c48 <exec+0x298>
  }

  // Stack frame for main(argc, argv), below arguments.
  sp = argp;
  sp -= 4;
  *(uint*)(mem+sp) = argp;
  100c8a:	8b 85 7c ff ff ff    	mov    -0x84(%ebp),%eax
  100c90:	8b 55 84             	mov    -0x7c(%ebp),%edx
  sp -= 4;
  *(uint*)(mem+sp) = argc;
  100c93:	8b 8d 74 ff ff ff    	mov    -0x8c(%ebp),%ecx
  sp -= 4;
  100c99:	89 c6                	mov    %eax,%esi
  }

  // Stack frame for main(argc, argv), below arguments.
  sp = argp;
  sp -= 4;
  *(uint*)(mem+sp) = argp;
  100c9b:	89 44 02 fc          	mov    %eax,-0x4(%edx,%eax,1)
  sp -= 4;
  *(uint*)(mem+sp) = argc;
  sp -= 4;
  100c9f:	83 ee 0c             	sub    $0xc,%esi
  // Stack frame for main(argc, argv), below arguments.
  sp = argp;
  sp -= 4;
  *(uint*)(mem+sp) = argp;
  sp -= 4;
  *(uint*)(mem+sp) = argc;
  100ca2:	89 4c 02 f8          	mov    %ecx,-0x8(%edx,%eax,1)
  sp -= 4;
  *(uint*)(mem+sp) = 0xffffffff;   // fake return pc
  100ca6:	c7 44 02 f4 ff ff ff 	movl   $0xffffffff,-0xc(%edx,%eax,1)
  100cad:	ff 

  // Save program name for debugging.
  for(last=s=path; *s; s++)
  100cae:	8b 45 08             	mov    0x8(%ebp),%eax
  100cb1:	0f b6 10             	movzbl (%eax),%edx
  100cb4:	89 c3                	mov    %eax,%ebx
  100cb6:	84 d2                	test   %dl,%dl
  100cb8:	74 21                	je     100cdb <exec+0x32b>
  100cba:	83 c0 01             	add    $0x1,%eax
  100cbd:	eb 0b                	jmp    100cca <exec+0x31a>
  100cbf:	90                   	nop
  100cc0:	0f b6 10             	movzbl (%eax),%edx
  100cc3:	83 c0 01             	add    $0x1,%eax
  100cc6:	84 d2                	test   %dl,%dl
  100cc8:	74 11                	je     100cdb <exec+0x32b>
    if(*s == '/')
  100cca:	80 fa 2f             	cmp    $0x2f,%dl
  100ccd:	75 f1                	jne    100cc0 <exec+0x310>
  *(uint*)(mem+sp) = argc;
  sp -= 4;
  *(uint*)(mem+sp) = 0xffffffff;   // fake return pc

  // Save program name for debugging.
  for(last=s=path; *s; s++)
  100ccf:	0f b6 10             	movzbl (%eax),%edx
    if(*s == '/')
  100cd2:	89 c3                	mov    %eax,%ebx
  *(uint*)(mem+sp) = argc;
  sp -= 4;
  *(uint*)(mem+sp) = 0xffffffff;   // fake return pc

  // Save program name for debugging.
  for(last=s=path; *s; s++)
  100cd4:	83 c0 01             	add    $0x1,%eax
  100cd7:	84 d2                	test   %dl,%dl
  100cd9:	75 ef                	jne    100cca <exec+0x31a>
    if(*s == '/')
      last = s+1;
  safestrcpy(cp->name, last, sizeof(cp->name));
  100cdb:	e8 a0 26 00 00       	call   103380 <curproc>
  100ce0:	89 5c 24 04          	mov    %ebx,0x4(%esp)
  100ce4:	c7 44 24 08 10 00 00 	movl   $0x10,0x8(%esp)
  100ceb:	00 
  100cec:	05 88 00 00 00       	add    $0x88,%eax
  100cf1:	89 04 24             	mov    %eax,(%esp)
  100cf4:	e8 a7 34 00 00       	call   1041a0 <safestrcpy>

  // Commit to the new image.
  kfree(cp->mem, cp->sz);
  100cf9:	e8 82 26 00 00       	call   103380 <curproc>
  100cfe:	8b 58 04             	mov    0x4(%eax),%ebx
  100d01:	e8 7a 26 00 00       	call   103380 <curproc>
  100d06:	89 5c 24 04          	mov    %ebx,0x4(%esp)
  100d0a:	8b 00                	mov    (%eax),%eax
  100d0c:	89 04 24             	mov    %eax,(%esp)
  100d0f:	e8 ec 16 00 00       	call   102400 <kfree>
  cp->mem = mem;
  100d14:	e8 67 26 00 00       	call   103380 <curproc>
  100d19:	8b 55 84             	mov    -0x7c(%ebp),%edx
  100d1c:	89 10                	mov    %edx,(%eax)
  cp->sz = sz;
  100d1e:	e8 5d 26 00 00       	call   103380 <curproc>
  100d23:	8b 4d 80             	mov    -0x80(%ebp),%ecx
  100d26:	89 48 04             	mov    %ecx,0x4(%eax)
  cp->tf->eip = elf.entry;  // main
  100d29:	e8 52 26 00 00       	call   103380 <curproc>
  100d2e:	8b 55 ac             	mov    -0x54(%ebp),%edx
  100d31:	8b 80 84 00 00 00    	mov    0x84(%eax),%eax
  100d37:	89 50 30             	mov    %edx,0x30(%eax)
  cp->tf->esp = sp;
  100d3a:	e8 41 26 00 00       	call   103380 <curproc>
  100d3f:	8b 80 84 00 00 00    	mov    0x84(%eax),%eax
  100d45:	89 70 3c             	mov    %esi,0x3c(%eax)
  setupsegs(cp);
  100d48:	e8 33 26 00 00       	call   103380 <curproc>
  100d4d:	89 04 24             	mov    %eax,(%esp)
  100d50:	e8 ab 2a 00 00       	call   103800 <setupsegs>
  100d55:	31 c0                	xor    %eax,%eax
 bad:
  if(mem)
    kfree(mem, sz);
  iunlockput(ip);
  return -1;
}
  100d57:	81 c4 9c 00 00 00    	add    $0x9c,%esp
  100d5d:	5b                   	pop    %ebx
  100d5e:	5e                   	pop    %esi
  100d5f:	5f                   	pop    %edi
  100d60:	5d                   	pop    %ebp
  100d61:	c3                   	ret    
  100d62:	8d b6 00 00 00 00    	lea    0x0(%esi),%esi
  setupsegs(cp);
  return 0;

 bad:
  if(mem)
    kfree(mem, sz);
  100d68:	8b 45 80             	mov    -0x80(%ebp),%eax
  100d6b:	89 44 24 04          	mov    %eax,0x4(%esp)
  100d6f:	8b 55 84             	mov    -0x7c(%ebp),%edx
  100d72:	89 14 24             	mov    %edx,(%esp)
  100d75:	e8 86 16 00 00       	call   102400 <kfree>
  iunlockput(ip);
  100d7a:	89 1c 24             	mov    %ebx,(%esp)
  100d7d:	e8 fe 0e 00 00       	call   101c80 <iunlockput>
  return -1;
}
  100d82:	81 c4 9c 00 00 00    	add    $0x9c,%esp
  return 0;

 bad:
  if(mem)
    kfree(mem, sz);
  iunlockput(ip);
  100d88:	b8 ff ff ff ff       	mov    $0xffffffff,%eax
  return -1;
}
  100d8d:	5b                   	pop    %ebx
  100d8e:	5e                   	pop    %esi
  100d8f:	5f                   	pop    %edi
  100d90:	5d                   	pop    %ebp
  100d91:	c3                   	ret    
    sz += ph.memsz;
  }
  
  // Arguments.
  arglen = 0;
  for(argc=0; argv[argc]; argc++)
  100d92:	b8 04 00 00 00       	mov    $0x4,%eax
  100d97:	c7 85 7c ff ff ff 00 	movl   $0x0,-0x84(%ebp)
  100d9e:	00 00 00 
  100da1:	c7 85 74 ff ff ff 00 	movl   $0x0,-0x8c(%ebp)
  100da8:	00 00 00 
  100dab:	e9 43 fd ff ff       	jmp    100af3 <exec+0x143>

00100db0 <filewrite>:
}

// Write to file f.  Addr is kernel address.
int
filewrite(struct file *f, char *addr, int n)
{
  100db0:	55                   	push   %ebp
  100db1:	89 e5                	mov    %esp,%ebp
  100db3:	83 ec 38             	sub    $0x38,%esp
  100db6:	89 5d f4             	mov    %ebx,-0xc(%ebp)
  100db9:	8b 5d 08             	mov    0x8(%ebp),%ebx
  100dbc:	89 75 f8             	mov    %esi,-0x8(%ebp)
  100dbf:	8b 75 0c             	mov    0xc(%ebp),%esi
  100dc2:	89 7d fc             	mov    %edi,-0x4(%ebp)
  100dc5:	8b 7d 10             	mov    0x10(%ebp),%edi
  int r;

  if(f->writable == 0)
  100dc8:	80 7b 09 00          	cmpb   $0x0,0x9(%ebx)
  100dcc:	74 5a                	je     100e28 <filewrite+0x78>
    return -1;
  if(f->type == FD_PIPE)
  100dce:	8b 03                	mov    (%ebx),%eax
  100dd0:	83 f8 02             	cmp    $0x2,%eax
  100dd3:	74 5b                	je     100e30 <filewrite+0x80>
    return pipewrite(f->pipe, addr, n);
  if(f->type == FD_INODE){
  100dd5:	83 f8 03             	cmp    $0x3,%eax
  100dd8:	75 6d                	jne    100e47 <filewrite+0x97>
    ilock(f->ip);
  100dda:	8b 43 10             	mov    0x10(%ebx),%eax
  100ddd:	89 04 24             	mov    %eax,(%esp)
  100de0:	e8 bb 0e 00 00       	call   101ca0 <ilock>
    if((r = writei(f->ip, addr, f->off, n)) > 0)
  100de5:	89 7c 24 0c          	mov    %edi,0xc(%esp)
  100de9:	8b 43 14             	mov    0x14(%ebx),%eax
  100dec:	89 74 24 04          	mov    %esi,0x4(%esp)
  100df0:	89 44 24 08          	mov    %eax,0x8(%esp)
  100df4:	8b 43 10             	mov    0x10(%ebx),%eax
  100df7:	89 04 24             	mov    %eax,(%esp)
  100dfa:	e8 01 08 00 00       	call   101600 <writei>
  100dff:	85 c0                	test   %eax,%eax
  100e01:	7e 03                	jle    100e06 <filewrite+0x56>
      f->off += r;
  100e03:	01 43 14             	add    %eax,0x14(%ebx)
    iunlock(f->ip);
  100e06:	8b 53 10             	mov    0x10(%ebx),%edx
  100e09:	89 14 24             	mov    %edx,(%esp)
  100e0c:	89 45 e4             	mov    %eax,-0x1c(%ebp)
  100e0f:	e8 1c 0e 00 00       	call   101c30 <iunlock>
    return r;
  100e14:	8b 45 e4             	mov    -0x1c(%ebp),%eax
  }
  panic("filewrite");
}
  100e17:	8b 5d f4             	mov    -0xc(%ebp),%ebx
  100e1a:	8b 75 f8             	mov    -0x8(%ebp),%esi
  100e1d:	8b 7d fc             	mov    -0x4(%ebp),%edi
  100e20:	89 ec                	mov    %ebp,%esp
  100e22:	5d                   	pop    %ebp
  100e23:	c3                   	ret    
  100e24:	8d 74 26 00          	lea    0x0(%esi,%eiz,1),%esi
    if((r = writei(f->ip, addr, f->off, n)) > 0)
      f->off += r;
    iunlock(f->ip);
    return r;
  }
  panic("filewrite");
  100e28:	b8 ff ff ff ff       	mov    $0xffffffff,%eax
  100e2d:	eb e8                	jmp    100e17 <filewrite+0x67>
  100e2f:	90                   	nop
  int r;

  if(f->writable == 0)
    return -1;
  if(f->type == FD_PIPE)
    return pipewrite(f->pipe, addr, n);
  100e30:	8b 43 0c             	mov    0xc(%ebx),%eax
      f->off += r;
    iunlock(f->ip);
    return r;
  }
  panic("filewrite");
}
  100e33:	8b 75 f8             	mov    -0x8(%ebp),%esi
  100e36:	8b 5d f4             	mov    -0xc(%ebp),%ebx
  100e39:	8b 7d fc             	mov    -0x4(%ebp),%edi
  int r;

  if(f->writable == 0)
    return -1;
  if(f->type == FD_PIPE)
    return pipewrite(f->pipe, addr, n);
  100e3c:	89 45 08             	mov    %eax,0x8(%ebp)
      f->off += r;
    iunlock(f->ip);
    return r;
  }
  panic("filewrite");
}
  100e3f:	89 ec                	mov    %ebp,%esp
  100e41:	5d                   	pop    %ebp
  int r;

  if(f->writable == 0)
    return -1;
  if(f->type == FD_PIPE)
    return pipewrite(f->pipe, addr, n);
  100e42:	e9 d9 20 00 00       	jmp    102f20 <pipewrite>
    if((r = writei(f->ip, addr, f->off, n)) > 0)
      f->off += r;
    iunlock(f->ip);
    return r;
  }
  panic("filewrite");
  100e47:	c7 04 24 ea 5f 10 00 	movl   $0x105fea,(%esp)
  100e4e:	e8 cd fa ff ff       	call   100920 <panic>
  100e53:	8d b6 00 00 00 00    	lea    0x0(%esi),%esi
  100e59:	8d bc 27 00 00 00 00 	lea    0x0(%edi,%eiz,1),%edi

00100e60 <fileread>:
}

// Read from file f.  Addr is kernel address.
int
fileread(struct file *f, char *addr, int n)
{
  100e60:	55                   	push   %ebp
  100e61:	89 e5                	mov    %esp,%ebp
  100e63:	83 ec 38             	sub    $0x38,%esp
  100e66:	89 5d f4             	mov    %ebx,-0xc(%ebp)
  100e69:	8b 5d 08             	mov    0x8(%ebp),%ebx
  100e6c:	89 75 f8             	mov    %esi,-0x8(%ebp)
  100e6f:	8b 75 0c             	mov    0xc(%ebp),%esi
  100e72:	89 7d fc             	mov    %edi,-0x4(%ebp)
  100e75:	8b 7d 10             	mov    0x10(%ebp),%edi
  int r;

  if(f->readable == 0)
  100e78:	80 7b 08 00          	cmpb   $0x0,0x8(%ebx)
  100e7c:	74 5a                	je     100ed8 <fileread+0x78>
    return -1;
  if(f->type == FD_PIPE)
  100e7e:	8b 03                	mov    (%ebx),%eax
  100e80:	83 f8 02             	cmp    $0x2,%eax
  100e83:	74 5b                	je     100ee0 <fileread+0x80>
    return piperead(f->pipe, addr, n);
  if(f->type == FD_INODE){
  100e85:	83 f8 03             	cmp    $0x3,%eax
  100e88:	75 6d                	jne    100ef7 <fileread+0x97>
    ilock(f->ip);
  100e8a:	8b 43 10             	mov    0x10(%ebx),%eax
  100e8d:	89 04 24             	mov    %eax,(%esp)
  100e90:	e8 0b 0e 00 00       	call   101ca0 <ilock>
    if((r = readi(f->ip, addr, f->off, n)) > 0)
  100e95:	89 7c 24 0c          	mov    %edi,0xc(%esp)
  100e99:	8b 43 14             	mov    0x14(%ebx),%eax
  100e9c:	89 74 24 04          	mov    %esi,0x4(%esp)
  100ea0:	89 44 24 08          	mov    %eax,0x8(%esp)
  100ea4:	8b 43 10             	mov    0x10(%ebx),%eax
  100ea7:	89 04 24             	mov    %eax,(%esp)
  100eaa:	e8 b1 05 00 00       	call   101460 <readi>
  100eaf:	85 c0                	test   %eax,%eax
  100eb1:	7e 03                	jle    100eb6 <fileread+0x56>
      f->off += r;
  100eb3:	01 43 14             	add    %eax,0x14(%ebx)
    iunlock(f->ip);
  100eb6:	8b 53 10             	mov    0x10(%ebx),%edx
  100eb9:	89 14 24             	mov    %edx,(%esp)
  100ebc:	89 45 e4             	mov    %eax,-0x1c(%ebp)
  100ebf:	e8 6c 0d 00 00       	call   101c30 <iunlock>
    return r;
  100ec4:	8b 45 e4             	mov    -0x1c(%ebp),%eax
  }
  panic("fileread");
}
  100ec7:	8b 5d f4             	mov    -0xc(%ebp),%ebx
  100eca:	8b 75 f8             	mov    -0x8(%ebp),%esi
  100ecd:	8b 7d fc             	mov    -0x4(%ebp),%edi
  100ed0:	89 ec                	mov    %ebp,%esp
  100ed2:	5d                   	pop    %ebp
  100ed3:	c3                   	ret    
  100ed4:	8d 74 26 00          	lea    0x0(%esi,%eiz,1),%esi
    if((r = readi(f->ip, addr, f->off, n)) > 0)
      f->off += r;
    iunlock(f->ip);
    return r;
  }
  panic("fileread");
  100ed8:	b8 ff ff ff ff       	mov    $0xffffffff,%eax
  100edd:	eb e8                	jmp    100ec7 <fileread+0x67>
  100edf:	90                   	nop
  int r;

  if(f->readable == 0)
    return -1;
  if(f->type == FD_PIPE)
    return piperead(f->pipe, addr, n);
  100ee0:	8b 43 0c             	mov    0xc(%ebx),%eax
      f->off += r;
    iunlock(f->ip);
    return r;
  }
  panic("fileread");
}
  100ee3:	8b 75 f8             	mov    -0x8(%ebp),%esi
  100ee6:	8b 5d f4             	mov    -0xc(%ebp),%ebx
  100ee9:	8b 7d fc             	mov    -0x4(%ebp),%edi
  int r;

  if(f->readable == 0)
    return -1;
  if(f->type == FD_PIPE)
    return piperead(f->pipe, addr, n);
  100eec:	89 45 08             	mov    %eax,0x8(%ebp)
      f->off += r;
    iunlock(f->ip);
    return r;
  }
  panic("fileread");
}
  100eef:	89 ec                	mov    %ebp,%esp
  100ef1:	5d                   	pop    %ebp
  int r;

  if(f->readable == 0)
    return -1;
  if(f->type == FD_PIPE)
    return piperead(f->pipe, addr, n);
  100ef2:	e9 39 1f 00 00       	jmp    102e30 <piperead>
    if((r = readi(f->ip, addr, f->off, n)) > 0)
      f->off += r;
    iunlock(f->ip);
    return r;
  }
  panic("fileread");
  100ef7:	c7 04 24 f4 5f 10 00 	movl   $0x105ff4,(%esp)
  100efe:	e8 1d fa ff ff       	call   100920 <panic>
  100f03:	8d b6 00 00 00 00    	lea    0x0(%esi),%esi
  100f09:	8d bc 27 00 00 00 00 	lea    0x0(%edi,%eiz,1),%edi

00100f10 <filestat>:
}

// Get metadata about file f.
int
filestat(struct file *f, struct stat *st)
{
  100f10:	55                   	push   %ebp
  if(f->type == FD_INODE){
  100f11:	b8 ff ff ff ff       	mov    $0xffffffff,%eax
}

// Get metadata about file f.
int
filestat(struct file *f, struct stat *st)
{
  100f16:	89 e5                	mov    %esp,%ebp
  100f18:	53                   	push   %ebx
  100f19:	83 ec 14             	sub    $0x14,%esp
  100f1c:	8b 5d 08             	mov    0x8(%ebp),%ebx
  if(f->type == FD_INODE){
  100f1f:	83 3b 03             	cmpl   $0x3,(%ebx)
  100f22:	74 0c                	je     100f30 <filestat+0x20>
    stati(f->ip, st);
    iunlock(f->ip);
    return 0;
  }
  return -1;
}
  100f24:	83 c4 14             	add    $0x14,%esp
  100f27:	5b                   	pop    %ebx
  100f28:	5d                   	pop    %ebp
  100f29:	c3                   	ret    
  100f2a:	8d b6 00 00 00 00    	lea    0x0(%esi),%esi
// Get metadata about file f.
int
filestat(struct file *f, struct stat *st)
{
  if(f->type == FD_INODE){
    ilock(f->ip);
  100f30:	8b 43 10             	mov    0x10(%ebx),%eax
  100f33:	89 04 24             	mov    %eax,(%esp)
  100f36:	e8 65 0d 00 00       	call   101ca0 <ilock>
    stati(f->ip, st);
  100f3b:	8b 45 0c             	mov    0xc(%ebp),%eax
  100f3e:	89 44 24 04          	mov    %eax,0x4(%esp)
  100f42:	8b 43 10             	mov    0x10(%ebx),%eax
  100f45:	89 04 24             	mov    %eax,(%esp)
  100f48:	e8 f3 01 00 00       	call   101140 <stati>
    iunlock(f->ip);
  100f4d:	8b 43 10             	mov    0x10(%ebx),%eax
  100f50:	89 04 24             	mov    %eax,(%esp)
  100f53:	e8 d8 0c 00 00       	call   101c30 <iunlock>
    return 0;
  }
  return -1;
}
  100f58:	83 c4 14             	add    $0x14,%esp
filestat(struct file *f, struct stat *st)
{
  if(f->type == FD_INODE){
    ilock(f->ip);
    stati(f->ip, st);
    iunlock(f->ip);
  100f5b:	31 c0                	xor    %eax,%eax
    return 0;
  }
  return -1;
}
  100f5d:	5b                   	pop    %ebx
  100f5e:	5d                   	pop    %ebp
  100f5f:	c3                   	ret    

00100f60 <filedup>:
}

// Increment ref count for file f.
struct file*
filedup(struct file *f)
{
  100f60:	55                   	push   %ebp
  100f61:	89 e5                	mov    %esp,%ebp
  100f63:	53                   	push   %ebx
  100f64:	83 ec 14             	sub    $0x14,%esp
  100f67:	8b 5d 08             	mov    0x8(%ebp),%ebx
  acquire(&file_table_lock);
  100f6a:	c7 04 24 e0 99 10 00 	movl   $0x1099e0,(%esp)
  100f71:	e8 1a 30 00 00       	call   103f90 <acquire>
  if(f->ref < 1 || f->type == FD_CLOSED)
  100f76:	8b 43 04             	mov    0x4(%ebx),%eax
  100f79:	85 c0                	test   %eax,%eax
  100f7b:	7e 20                	jle    100f9d <filedup+0x3d>
  100f7d:	8b 13                	mov    (%ebx),%edx
  100f7f:	85 d2                	test   %edx,%edx
  100f81:	74 1a                	je     100f9d <filedup+0x3d>
    panic("filedup");
  f->ref++;
  100f83:	83 c0 01             	add    $0x1,%eax
  100f86:	89 43 04             	mov    %eax,0x4(%ebx)
  release(&file_table_lock);
  100f89:	c7 04 24 e0 99 10 00 	movl   $0x1099e0,(%esp)
  100f90:	e8 bb 2f 00 00       	call   103f50 <release>
  return f;
}
  100f95:	89 d8                	mov    %ebx,%eax
  100f97:	83 c4 14             	add    $0x14,%esp
  100f9a:	5b                   	pop    %ebx
  100f9b:	5d                   	pop    %ebp
  100f9c:	c3                   	ret    
struct file*
filedup(struct file *f)
{
  acquire(&file_table_lock);
  if(f->ref < 1 || f->type == FD_CLOSED)
    panic("filedup");
  100f9d:	c7 04 24 fd 5f 10 00 	movl   $0x105ffd,(%esp)
  100fa4:	e8 77 f9 ff ff       	call   100920 <panic>
  100fa9:	8d b4 26 00 00 00 00 	lea    0x0(%esi,%eiz,1),%esi

00100fb0 <filealloc>:
}

// Allocate a file structure.
struct file*
filealloc(void)
{
  100fb0:	55                   	push   %ebp
  100fb1:	89 e5                	mov    %esp,%ebp
  100fb3:	53                   	push   %ebx
  100fb4:	83 ec 14             	sub    $0x14,%esp
  int i;

  acquire(&file_table_lock);
  100fb7:	c7 04 24 e0 99 10 00 	movl   $0x1099e0,(%esp)
  100fbe:	e8 cd 2f 00 00       	call   103f90 <acquire>
  100fc3:	ba 80 90 10 00       	mov    $0x109080,%edx
  100fc8:	31 c0                	xor    %eax,%eax
  100fca:	eb 0f                	jmp    100fdb <filealloc+0x2b>
  100fcc:	8d 74 26 00          	lea    0x0(%esi,%eiz,1),%esi
  for(i = 0; i < NFILE; i++){
  100fd0:	83 c0 01             	add    $0x1,%eax
  100fd3:	83 c2 18             	add    $0x18,%edx
  100fd6:	83 f8 64             	cmp    $0x64,%eax
  100fd9:	74 45                	je     101020 <filealloc+0x70>
    if(file[i].type == FD_CLOSED){
  100fdb:	8b 0a                	mov    (%edx),%ecx
  100fdd:	85 c9                	test   %ecx,%ecx
  100fdf:	75 ef                	jne    100fd0 <filealloc+0x20>
      file[i].type = FD_NONE;
  100fe1:	8d 14 40             	lea    (%eax,%eax,2),%edx
  100fe4:	8d 1c d5 00 00 00 00 	lea    0x0(,%edx,8),%ebx
      file[i].ref = 1;
      release(&file_table_lock);
  100feb:	c7 04 24 e0 99 10 00 	movl   $0x1099e0,(%esp)
  int i;

  acquire(&file_table_lock);
  for(i = 0; i < NFILE; i++){
    if(file[i].type == FD_CLOSED){
      file[i].type = FD_NONE;
  100ff2:	c7 04 d5 80 90 10 00 	movl   $0x1,0x109080(,%edx,8)
  100ff9:	01 00 00 00 
      file[i].ref = 1;
  100ffd:	c7 04 d5 84 90 10 00 	movl   $0x1,0x109084(,%edx,8)
  101004:	01 00 00 00 
      release(&file_table_lock);
  101008:	e8 43 2f 00 00       	call   103f50 <release>
      return file + i;
  10100d:	8d 83 80 90 10 00    	lea    0x109080(%ebx),%eax
    }
  }
  release(&file_table_lock);
  return 0;
}
  101013:	83 c4 14             	add    $0x14,%esp
  101016:	5b                   	pop    %ebx
  101017:	5d                   	pop    %ebp
  101018:	c3                   	ret    
  101019:	8d b4 26 00 00 00 00 	lea    0x0(%esi,%eiz,1),%esi
      file[i].ref = 1;
      release(&file_table_lock);
      return file + i;
    }
  }
  release(&file_table_lock);
  101020:	c7 04 24 e0 99 10 00 	movl   $0x1099e0,(%esp)
  101027:	e8 24 2f 00 00       	call   103f50 <release>
  return 0;
}
  10102c:	83 c4 14             	add    $0x14,%esp
      file[i].ref = 1;
      release(&file_table_lock);
      return file + i;
    }
  }
  release(&file_table_lock);
  10102f:	31 c0                	xor    %eax,%eax
  return 0;
}
  101031:	5b                   	pop    %ebx
  101032:	5d                   	pop    %ebp
  101033:	c3                   	ret    
  101034:	8d b6 00 00 00 00    	lea    0x0(%esi),%esi
  10103a:	8d bf 00 00 00 00    	lea    0x0(%edi),%edi

00101040 <fileclose>:
}

// Close file f.  (Decrement ref count, close when reaches 0.)
void
fileclose(struct file *f)
{
  101040:	55                   	push   %ebp
  101041:	89 e5                	mov    %esp,%ebp
  101043:	83 ec 38             	sub    $0x38,%esp
  101046:	89 5d f4             	mov    %ebx,-0xc(%ebp)
  101049:	8b 5d 08             	mov    0x8(%ebp),%ebx
  10104c:	89 75 f8             	mov    %esi,-0x8(%ebp)
  10104f:	89 7d fc             	mov    %edi,-0x4(%ebp)
  struct file ff;

  acquire(&file_table_lock);
  101052:	c7 04 24 e0 99 10 00 	movl   $0x1099e0,(%esp)
  101059:	e8 32 2f 00 00       	call   103f90 <acquire>
  if(f->ref < 1 || f->type == FD_CLOSED)
  10105e:	8b 43 04             	mov    0x4(%ebx),%eax
  101061:	85 c0                	test   %eax,%eax
  101063:	0f 8e 9f 00 00 00    	jle    101108 <fileclose+0xc8>
  101069:	8b 33                	mov    (%ebx),%esi
  10106b:	85 f6                	test   %esi,%esi
  10106d:	0f 84 95 00 00 00    	je     101108 <fileclose+0xc8>
    panic("fileclose");
  if(--f->ref > 0){
  101073:	83 e8 01             	sub    $0x1,%eax
  101076:	85 c0                	test   %eax,%eax
  101078:	89 43 04             	mov    %eax,0x4(%ebx)
  10107b:	74 1b                	je     101098 <fileclose+0x58>
    release(&file_table_lock);
  10107d:	c7 45 08 e0 99 10 00 	movl   $0x1099e0,0x8(%ebp)
    pipeclose(ff.pipe, ff.writable);
  else if(ff.type == FD_INODE)
    iput(ff.ip);
  else
    panic("fileclose");
}
  101084:	8b 5d f4             	mov    -0xc(%ebp),%ebx
  101087:	8b 75 f8             	mov    -0x8(%ebp),%esi
  10108a:	8b 7d fc             	mov    -0x4(%ebp),%edi
  10108d:	89 ec                	mov    %ebp,%esp
  10108f:	5d                   	pop    %ebp

  acquire(&file_table_lock);
  if(f->ref < 1 || f->type == FD_CLOSED)
    panic("fileclose");
  if(--f->ref > 0){
    release(&file_table_lock);
  101090:	e9 bb 2e 00 00       	jmp    103f50 <release>
  101095:	8d 76 00             	lea    0x0(%esi),%esi
    return;
  }
  ff = *f;
  101098:	8b 43 0c             	mov    0xc(%ebx),%eax
  10109b:	8b 33                	mov    (%ebx),%esi
  10109d:	8b 7b 10             	mov    0x10(%ebx),%edi
  f->ref = 0;
  1010a0:	c7 43 04 00 00 00 00 	movl   $0x0,0x4(%ebx)
    panic("fileclose");
  if(--f->ref > 0){
    release(&file_table_lock);
    return;
  }
  ff = *f;
  1010a7:	89 45 e0             	mov    %eax,-0x20(%ebp)
  1010aa:	0f b6 43 09          	movzbl 0x9(%ebx),%eax
  f->ref = 0;
  f->type = FD_CLOSED;
  1010ae:	c7 03 00 00 00 00    	movl   $0x0,(%ebx)
    panic("fileclose");
  if(--f->ref > 0){
    release(&file_table_lock);
    return;
  }
  ff = *f;
  1010b4:	88 45 e7             	mov    %al,-0x19(%ebp)
  f->ref = 0;
  f->type = FD_CLOSED;
  release(&file_table_lock);
  1010b7:	c7 04 24 e0 99 10 00 	movl   $0x1099e0,(%esp)
  1010be:	e8 8d 2e 00 00       	call   103f50 <release>
  
  if(ff.type == FD_PIPE)
  1010c3:	83 fe 02             	cmp    $0x2,%esi
  1010c6:	74 20                	je     1010e8 <fileclose+0xa8>
    pipeclose(ff.pipe, ff.writable);
  else if(ff.type == FD_INODE)
  1010c8:	83 fe 03             	cmp    $0x3,%esi
  1010cb:	75 3b                	jne    101108 <fileclose+0xc8>
    iput(ff.ip);
  1010cd:	89 7d 08             	mov    %edi,0x8(%ebp)
  else
    panic("fileclose");
}
  1010d0:	8b 5d f4             	mov    -0xc(%ebp),%ebx
  1010d3:	8b 75 f8             	mov    -0x8(%ebp),%esi
  1010d6:	8b 7d fc             	mov    -0x4(%ebp),%edi
  1010d9:	89 ec                	mov    %ebp,%esp
  1010db:	5d                   	pop    %ebp
  release(&file_table_lock);
  
  if(ff.type == FD_PIPE)
    pipeclose(ff.pipe, ff.writable);
  else if(ff.type == FD_INODE)
    iput(ff.ip);
  1010dc:	e9 0f 09 00 00       	jmp    1019f0 <iput>
  1010e1:	8d b4 26 00 00 00 00 	lea    0x0(%esi,%eiz,1),%esi
  f->ref = 0;
  f->type = FD_CLOSED;
  release(&file_table_lock);
  
  if(ff.type == FD_PIPE)
    pipeclose(ff.pipe, ff.writable);
  1010e8:	0f be 45 e7          	movsbl -0x19(%ebp),%eax
  1010ec:	89 44 24 04          	mov    %eax,0x4(%esp)
  1010f0:	8b 45 e0             	mov    -0x20(%ebp),%eax
  1010f3:	89 04 24             	mov    %eax,(%esp)
  1010f6:	e8 35 1f 00 00       	call   103030 <pipeclose>
  else if(ff.type == FD_INODE)
    iput(ff.ip);
  else
    panic("fileclose");
}
  1010fb:	8b 5d f4             	mov    -0xc(%ebp),%ebx
  1010fe:	8b 75 f8             	mov    -0x8(%ebp),%esi
  101101:	8b 7d fc             	mov    -0x4(%ebp),%edi
  101104:	89 ec                	mov    %ebp,%esp
  101106:	5d                   	pop    %ebp
  101107:	c3                   	ret    
  if(ff.type == FD_PIPE)
    pipeclose(ff.pipe, ff.writable);
  else if(ff.type == FD_INODE)
    iput(ff.ip);
  else
    panic("fileclose");
  101108:	c7 04 24 05 60 10 00 	movl   $0x106005,(%esp)
  10110f:	e8 0c f8 ff ff       	call   100920 <panic>
  101114:	8d b6 00 00 00 00    	lea    0x0(%esi),%esi
  10111a:	8d bf 00 00 00 00    	lea    0x0(%edi),%edi

00101120 <fileinit>:
struct spinlock file_table_lock;
struct file file[NFILE];

void
fileinit(void)
{
  101120:	55                   	push   %ebp
  101121:	89 e5                	mov    %esp,%ebp
  101123:	83 ec 18             	sub    $0x18,%esp
  initlock(&file_table_lock, "file_table");
  101126:	c7 44 24 04 0f 60 10 	movl   $0x10600f,0x4(%esp)
  10112d:	00 
  10112e:	c7 04 24 e0 99 10 00 	movl   $0x1099e0,(%esp)
  101135:	e8 96 2c 00 00       	call   103dd0 <initlock>
}
  10113a:	c9                   	leave  
  10113b:	c3                   	ret    
  10113c:	90                   	nop
  10113d:	90                   	nop
  10113e:	90                   	nop
  10113f:	90                   	nop

00101140 <stati>:
}

// Copy stat information from inode.
void
stati(struct inode *ip, struct stat *st)
{
  101140:	55                   	push   %ebp
  101141:	89 e5                	mov    %esp,%ebp
  101143:	8b 55 08             	mov    0x8(%ebp),%edx
  101146:	8b 45 0c             	mov    0xc(%ebp),%eax
  st->dev = ip->dev;
  101149:	8b 0a                	mov    (%edx),%ecx
  10114b:	89 08                	mov    %ecx,(%eax)
  st->ino = ip->inum;
  10114d:	8b 4a 04             	mov    0x4(%edx),%ecx
  101150:	89 48 04             	mov    %ecx,0x4(%eax)
  st->type = ip->type;
  101153:	0f b7 4a 10          	movzwl 0x10(%edx),%ecx
  101157:	66 89 48 08          	mov    %cx,0x8(%eax)
  st->nlink = ip->nlink;
  10115b:	0f b7 4a 16          	movzwl 0x16(%edx),%ecx
  st->size = ip->size;
  10115f:	8b 52 18             	mov    0x18(%edx),%edx
stati(struct inode *ip, struct stat *st)
{
  st->dev = ip->dev;
  st->ino = ip->inum;
  st->type = ip->type;
  st->nlink = ip->nlink;
  101162:	66 89 48 0a          	mov    %cx,0xa(%eax)
  st->size = ip->size;
  101166:	89 50 0c             	mov    %edx,0xc(%eax)
}
  101169:	5d                   	pop    %ebp
  10116a:	c3                   	ret    
  10116b:	90                   	nop
  10116c:	8d 74 26 00          	lea    0x0(%esi,%eiz,1),%esi

00101170 <idup>:

// Increment reference count for ip.
// Returns ip to enable ip = idup(ip1) idiom.
struct inode*
idup(struct inode *ip)
{
  101170:	55                   	push   %ebp
  101171:	89 e5                	mov    %esp,%ebp
  101173:	53                   	push   %ebx
  101174:	83 ec 14             	sub    $0x14,%esp
  101177:	8b 5d 08             	mov    0x8(%ebp),%ebx
  acquire(&icache.lock);
  10117a:	c7 04 24 80 9a 10 00 	movl   $0x109a80,(%esp)
  101181:	e8 0a 2e 00 00       	call   103f90 <acquire>
  ip->ref++;
  101186:	83 43 08 01          	addl   $0x1,0x8(%ebx)
  release(&icache.lock);
  10118a:	c7 04 24 80 9a 10 00 	movl   $0x109a80,(%esp)
  101191:	e8 ba 2d 00 00       	call   103f50 <release>
  return ip;
}
  101196:	89 d8                	mov    %ebx,%eax
  101198:	83 c4 14             	add    $0x14,%esp
  10119b:	5b                   	pop    %ebx
  10119c:	5d                   	pop    %ebp
  10119d:	c3                   	ret    
  10119e:	66 90                	xchg   %ax,%ax

001011a0 <iget>:

// Find the inode with number inum on device dev
// and return the in-memory copy.
static struct inode*
iget(uint dev, uint inum)
{
  1011a0:	55                   	push   %ebp
  1011a1:	89 e5                	mov    %esp,%ebp
  1011a3:	57                   	push   %edi
  1011a4:	89 d7                	mov    %edx,%edi
  1011a6:	56                   	push   %esi
}

// Find the inode with number inum on device dev
// and return the in-memory copy.
static struct inode*
iget(uint dev, uint inum)
  1011a7:	31 f6                	xor    %esi,%esi
{
  1011a9:	53                   	push   %ebx
  1011aa:	89 c3                	mov    %eax,%ebx
  1011ac:	83 ec 2c             	sub    $0x2c,%esp
  struct inode *ip, *empty;

  acquire(&icache.lock);
  1011af:	c7 04 24 80 9a 10 00 	movl   $0x109a80,(%esp)
  1011b6:	e8 d5 2d 00 00       	call   103f90 <acquire>
}

// Find the inode with number inum on device dev
// and return the in-memory copy.
static struct inode*
iget(uint dev, uint inum)
  1011bb:	b8 b4 9a 10 00       	mov    $0x109ab4,%eax
  1011c0:	eb 14                	jmp    1011d6 <iget+0x36>
  1011c2:	8d b6 00 00 00 00    	lea    0x0(%esi),%esi
    if(ip->ref > 0 && ip->dev == dev && ip->inum == inum){
      ip->ref++;
      release(&icache.lock);
      return ip;
    }
    if(empty == 0 && ip->ref == 0)    // Remember empty slot.
  1011c8:	85 f6                	test   %esi,%esi
  1011ca:	74 3c                	je     101208 <iget+0x68>

  acquire(&icache.lock);

  // Try for cached inode.
  empty = 0;
  for(ip = &icache.inode[0]; ip < &icache.inode[NINODE]; ip++){
  1011cc:	83 c0 50             	add    $0x50,%eax
  1011cf:	3d 54 aa 10 00       	cmp    $0x10aa54,%eax
  1011d4:	74 42                	je     101218 <iget+0x78>
    if(ip->ref > 0 && ip->dev == dev && ip->inum == inum){
  1011d6:	8b 48 08             	mov    0x8(%eax),%ecx
  1011d9:	85 c9                	test   %ecx,%ecx
  1011db:	7e eb                	jle    1011c8 <iget+0x28>
  1011dd:	39 18                	cmp    %ebx,(%eax)
  1011df:	75 e7                	jne    1011c8 <iget+0x28>
  1011e1:	39 78 04             	cmp    %edi,0x4(%eax)
  1011e4:	75 e2                	jne    1011c8 <iget+0x28>
      ip->ref++;
  1011e6:	83 c1 01             	add    $0x1,%ecx
  1011e9:	89 48 08             	mov    %ecx,0x8(%eax)
      release(&icache.lock);
  1011ec:	c7 04 24 80 9a 10 00 	movl   $0x109a80,(%esp)
  1011f3:	89 45 e4             	mov    %eax,-0x1c(%ebp)
  1011f6:	e8 55 2d 00 00       	call   103f50 <release>
      return ip;
  1011fb:	8b 45 e4             	mov    -0x1c(%ebp),%eax
  ip->ref = 1;
  ip->flags = 0;
  release(&icache.lock);

  return ip;
}
  1011fe:	83 c4 2c             	add    $0x2c,%esp
  101201:	5b                   	pop    %ebx
  101202:	5e                   	pop    %esi
  101203:	5f                   	pop    %edi
  101204:	5d                   	pop    %ebp
  101205:	c3                   	ret    
  101206:	66 90                	xchg   %ax,%ax
    if(ip->ref > 0 && ip->dev == dev && ip->inum == inum){
      ip->ref++;
      release(&icache.lock);
      return ip;
    }
    if(empty == 0 && ip->ref == 0)    // Remember empty slot.
  101208:	85 c9                	test   %ecx,%ecx
  10120a:	75 c0                	jne    1011cc <iget+0x2c>
  10120c:	89 c6                	mov    %eax,%esi

  acquire(&icache.lock);

  // Try for cached inode.
  empty = 0;
  for(ip = &icache.inode[0]; ip < &icache.inode[NINODE]; ip++){
  10120e:	83 c0 50             	add    $0x50,%eax
  101211:	3d 54 aa 10 00       	cmp    $0x10aa54,%eax
  101216:	75 be                	jne    1011d6 <iget+0x36>
    if(empty == 0 && ip->ref == 0)    // Remember empty slot.
      empty = ip;
  }

  // Allocate fresh inode.
  if(empty == 0)
  101218:	85 f6                	test   %esi,%esi
  10121a:	74 29                	je     101245 <iget+0xa5>
    panic("iget: no inodes");

  ip = empty;
  ip->dev = dev;
  10121c:	89 1e                	mov    %ebx,(%esi)
  ip->inum = inum;
  10121e:	89 7e 04             	mov    %edi,0x4(%esi)
  ip->ref = 1;
  101221:	c7 46 08 01 00 00 00 	movl   $0x1,0x8(%esi)
  ip->flags = 0;
  101228:	c7 46 0c 00 00 00 00 	movl   $0x0,0xc(%esi)
  release(&icache.lock);
  10122f:	c7 04 24 80 9a 10 00 	movl   $0x109a80,(%esp)
  101236:	e8 15 2d 00 00       	call   103f50 <release>

  return ip;
}
  10123b:	83 c4 2c             	add    $0x2c,%esp
  ip = empty;
  ip->dev = dev;
  ip->inum = inum;
  ip->ref = 1;
  ip->flags = 0;
  release(&icache.lock);
  10123e:	89 f0                	mov    %esi,%eax

  return ip;
}
  101240:	5b                   	pop    %ebx
  101241:	5e                   	pop    %esi
  101242:	5f                   	pop    %edi
  101243:	5d                   	pop    %ebp
  101244:	c3                   	ret    
      empty = ip;
  }

  // Allocate fresh inode.
  if(empty == 0)
    panic("iget: no inodes");
  101245:	c7 04 24 1a 60 10 00 	movl   $0x10601a,(%esp)
  10124c:	e8 cf f6 ff ff       	call   100920 <panic>
  101251:	eb 0d                	jmp    101260 <readsb>
  101253:	90                   	nop
  101254:	90                   	nop
  101255:	90                   	nop
  101256:	90                   	nop
  101257:	90                   	nop
  101258:	90                   	nop
  101259:	90                   	nop
  10125a:	90                   	nop
  10125b:	90                   	nop
  10125c:	90                   	nop
  10125d:	90                   	nop
  10125e:	90                   	nop
  10125f:	90                   	nop

00101260 <readsb>:
static void itrunc(struct inode*);

// Read the super block.
static void
readsb(int dev, struct superblock *sb)
{
  101260:	55                   	push   %ebp
  101261:	89 e5                	mov    %esp,%ebp
  101263:	83 ec 18             	sub    $0x18,%esp
  struct buf *bp;
  
  bp = bread(dev, 1);
  101266:	c7 44 24 04 01 00 00 	movl   $0x1,0x4(%esp)
  10126d:	00 
static void itrunc(struct inode*);

// Read the super block.
static void
readsb(int dev, struct superblock *sb)
{
  10126e:	89 5d f8             	mov    %ebx,-0x8(%ebp)
  101271:	89 75 fc             	mov    %esi,-0x4(%ebp)
  101274:	89 d6                	mov    %edx,%esi
  struct buf *bp;
  
  bp = bread(dev, 1);
  101276:	89 04 24             	mov    %eax,(%esp)
  101279:	e8 32 ee ff ff       	call   1000b0 <bread>
  memmove(sb, bp->data, sizeof(*sb));
  10127e:	89 34 24             	mov    %esi,(%esp)
  101281:	c7 44 24 08 0c 00 00 	movl   $0xc,0x8(%esp)
  101288:	00 
static void
readsb(int dev, struct superblock *sb)
{
  struct buf *bp;
  
  bp = bread(dev, 1);
  101289:	89 c3                	mov    %eax,%ebx
  memmove(sb, bp->data, sizeof(*sb));
  10128b:	8d 40 18             	lea    0x18(%eax),%eax
  10128e:	89 44 24 04          	mov    %eax,0x4(%esp)
  101292:	e8 f9 2d 00 00       	call   104090 <memmove>
  brelse(bp);
  101297:	89 1c 24             	mov    %ebx,(%esp)
  10129a:	e8 61 ed ff ff       	call   100000 <brelse>
}
  10129f:	8b 5d f8             	mov    -0x8(%ebp),%ebx
  1012a2:	8b 75 fc             	mov    -0x4(%ebp),%esi
  1012a5:	89 ec                	mov    %ebp,%esp
  1012a7:	5d                   	pop    %ebp
  1012a8:	c3                   	ret    
  1012a9:	8d b4 26 00 00 00 00 	lea    0x0(%esi,%eiz,1),%esi

001012b0 <balloc>:
// Blocks. 

// Allocate a disk block.
static uint
balloc(uint dev)
{
  1012b0:	55                   	push   %ebp
  1012b1:	89 e5                	mov    %esp,%ebp
  1012b3:	57                   	push   %edi
  1012b4:	56                   	push   %esi
  1012b5:	53                   	push   %ebx
  1012b6:	83 ec 3c             	sub    $0x3c,%esp
  int b, bi, m;
  struct buf *bp;
  struct superblock sb;

  bp = 0;
  readsb(dev, &sb);
  1012b9:	8d 55 dc             	lea    -0x24(%ebp),%edx
// Blocks. 

// Allocate a disk block.
static uint
balloc(uint dev)
{
  1012bc:	89 45 d0             	mov    %eax,-0x30(%ebp)
  int b, bi, m;
  struct buf *bp;
  struct superblock sb;

  bp = 0;
  readsb(dev, &sb);
  1012bf:	e8 9c ff ff ff       	call   101260 <readsb>
  for(b = 0; b < sb.size; b += BPB){
  1012c4:	8b 45 dc             	mov    -0x24(%ebp),%eax
  1012c7:	85 c0                	test   %eax,%eax
  1012c9:	0f 84 9c 00 00 00    	je     10136b <balloc+0xbb>
  1012cf:	c7 45 d4 00 00 00 00 	movl   $0x0,-0x2c(%ebp)
    bp = bread(dev, BBLOCK(b, sb.ninodes));
  1012d6:	8b 45 e4             	mov    -0x1c(%ebp),%eax
  1012d9:	31 db                	xor    %ebx,%ebx
  1012db:	8b 55 d4             	mov    -0x2c(%ebp),%edx
  1012de:	c1 e8 03             	shr    $0x3,%eax
  1012e1:	c1 fa 0c             	sar    $0xc,%edx
  1012e4:	8d 44 10 03          	lea    0x3(%eax,%edx,1),%eax
  1012e8:	89 44 24 04          	mov    %eax,0x4(%esp)
  1012ec:	8b 45 d0             	mov    -0x30(%ebp),%eax
  1012ef:	89 04 24             	mov    %eax,(%esp)
  1012f2:	e8 b9 ed ff ff       	call   1000b0 <bread>
  1012f7:	89 c6                	mov    %eax,%esi
  1012f9:	eb 10                	jmp    10130b <balloc+0x5b>
  1012fb:	90                   	nop
  1012fc:	8d 74 26 00          	lea    0x0(%esi,%eiz,1),%esi
    for(bi = 0; bi < BPB; bi++){
  101300:	83 c3 01             	add    $0x1,%ebx
  101303:	81 fb 00 10 00 00    	cmp    $0x1000,%ebx
  101309:	74 45                	je     101350 <balloc+0xa0>
      m = 1 << (bi % 8);
  10130b:	89 d9                	mov    %ebx,%ecx
  10130d:	ba 01 00 00 00       	mov    $0x1,%edx
  101312:	83 e1 07             	and    $0x7,%ecx
      if((bp->data[bi/8] & m) == 0){  // Is block free?
  101315:	89 d8                	mov    %ebx,%eax
  bp = 0;
  readsb(dev, &sb);
  for(b = 0; b < sb.size; b += BPB){
    bp = bread(dev, BBLOCK(b, sb.ninodes));
    for(bi = 0; bi < BPB; bi++){
      m = 1 << (bi % 8);
  101317:	d3 e2                	shl    %cl,%edx
      if((bp->data[bi/8] & m) == 0){  // Is block free?
  101319:	c1 f8 03             	sar    $0x3,%eax
  bp = 0;
  readsb(dev, &sb);
  for(b = 0; b < sb.size; b += BPB){
    bp = bread(dev, BBLOCK(b, sb.ninodes));
    for(bi = 0; bi < BPB; bi++){
      m = 1 << (bi % 8);
  10131c:	89 d1                	mov    %edx,%ecx
      if((bp->data[bi/8] & m) == 0){  // Is block free?
  10131e:	0f b6 54 06 18       	movzbl 0x18(%esi,%eax,1),%edx
  101323:	0f b6 fa             	movzbl %dl,%edi
  101326:	85 cf                	test   %ecx,%edi
  101328:	75 d6                	jne    101300 <balloc+0x50>
        bp->data[bi/8] |= m;  // Mark block in use on disk.
  10132a:	09 d1                	or     %edx,%ecx
  10132c:	88 4c 06 18          	mov    %cl,0x18(%esi,%eax,1)
        bwrite(bp);
  101330:	89 34 24             	mov    %esi,(%esp)
  101333:	e8 48 ed ff ff       	call   100080 <bwrite>
        brelse(bp);
  101338:	89 34 24             	mov    %esi,(%esp)
  10133b:	e8 c0 ec ff ff       	call   100000 <brelse>
  101340:	8b 55 d4             	mov    -0x2c(%ebp),%edx
      }
    }
    brelse(bp);
  }
  panic("balloc: out of blocks");
}
  101343:	83 c4 3c             	add    $0x3c,%esp
    for(bi = 0; bi < BPB; bi++){
      m = 1 << (bi % 8);
      if((bp->data[bi/8] & m) == 0){  // Is block free?
        bp->data[bi/8] |= m;  // Mark block in use on disk.
        bwrite(bp);
        brelse(bp);
  101346:	8d 04 13             	lea    (%ebx,%edx,1),%eax
      }
    }
    brelse(bp);
  }
  panic("balloc: out of blocks");
}
  101349:	5b                   	pop    %ebx
  10134a:	5e                   	pop    %esi
  10134b:	5f                   	pop    %edi
  10134c:	5d                   	pop    %ebp
  10134d:	c3                   	ret    
  10134e:	66 90                	xchg   %ax,%ax
        bwrite(bp);
        brelse(bp);
        return b + bi;
      }
    }
    brelse(bp);
  101350:	89 34 24             	mov    %esi,(%esp)
  101353:	e8 a8 ec ff ff       	call   100000 <brelse>
  struct buf *bp;
  struct superblock sb;

  bp = 0;
  readsb(dev, &sb);
  for(b = 0; b < sb.size; b += BPB){
  101358:	81 45 d4 00 10 00 00 	addl   $0x1000,-0x2c(%ebp)
  10135f:	8b 45 d4             	mov    -0x2c(%ebp),%eax
  101362:	39 45 dc             	cmp    %eax,-0x24(%ebp)
  101365:	0f 87 6b ff ff ff    	ja     1012d6 <balloc+0x26>
        return b + bi;
      }
    }
    brelse(bp);
  }
  panic("balloc: out of blocks");
  10136b:	c7 04 24 2a 60 10 00 	movl   $0x10602a,(%esp)
  101372:	e8 a9 f5 ff ff       	call   100920 <panic>
  101377:	89 f6                	mov    %esi,%esi
  101379:	8d bc 27 00 00 00 00 	lea    0x0(%edi,%eiz,1),%edi

00101380 <bmap>:

// Return the disk block address of the nth block in inode ip.
// If there is no such block, alloc controls whether one is allocated.
static uint
bmap(struct inode *ip, uint bn, int alloc)
{
  101380:	55                   	push   %ebp
  101381:	89 e5                	mov    %esp,%ebp
  101383:	83 ec 38             	sub    $0x38,%esp
  uint addr, *a;
  struct buf *bp;

  if(bn < NDIRECT){
  101386:	83 fa 0b             	cmp    $0xb,%edx

// Return the disk block address of the nth block in inode ip.
// If there is no such block, alloc controls whether one is allocated.
static uint
bmap(struct inode *ip, uint bn, int alloc)
{
  101389:	89 5d f4             	mov    %ebx,-0xc(%ebp)
  10138c:	89 c3                	mov    %eax,%ebx
  10138e:	89 75 f8             	mov    %esi,-0x8(%ebp)
  101391:	89 ce                	mov    %ecx,%esi
  101393:	89 7d fc             	mov    %edi,-0x4(%ebp)
  uint addr, *a;
  struct buf *bp;

  if(bn < NDIRECT){
  101396:	77 30                	ja     1013c8 <bmap+0x48>
    if((addr = ip->addrs[bn]) == 0){
  101398:	8d 7a 04             	lea    0x4(%edx),%edi
  10139b:	8b 44 b8 0c          	mov    0xc(%eax,%edi,4),%eax
  10139f:	85 c0                	test   %eax,%eax
  1013a1:	75 15                	jne    1013b8 <bmap+0x38>
      if(!alloc)
  1013a3:	85 c9                	test   %ecx,%ecx
  1013a5:	74 38                	je     1013df <bmap+0x5f>
        return -1;
      ip->addrs[bn] = addr = balloc(ip->dev);
  1013a7:	8b 03                	mov    (%ebx),%eax
  1013a9:	e8 02 ff ff ff       	call   1012b0 <balloc>
  1013ae:	89 44 bb 0c          	mov    %eax,0xc(%ebx,%edi,4)
  1013b2:	8d b6 00 00 00 00    	lea    0x0(%esi),%esi
    brelse(bp);
    return addr;
  }

  panic("bmap: out of range");
}
  1013b8:	8b 5d f4             	mov    -0xc(%ebp),%ebx
  1013bb:	8b 75 f8             	mov    -0x8(%ebp),%esi
  1013be:	8b 7d fc             	mov    -0x4(%ebp),%edi
  1013c1:	89 ec                	mov    %ebp,%esp
  1013c3:	5d                   	pop    %ebp
  1013c4:	c3                   	ret    
  1013c5:	8d 76 00             	lea    0x0(%esi),%esi
        return -1;
      ip->addrs[bn] = addr = balloc(ip->dev);
    }
    return addr;
  }
  bn -= NDIRECT;
  1013c8:	8d 7a f4             	lea    -0xc(%edx),%edi

  if(bn < NINDIRECT){
  1013cb:	83 ff 7f             	cmp    $0x7f,%edi
  1013ce:	0f 87 7f 00 00 00    	ja     101453 <bmap+0xd3>
    // Load indirect block, allocating if necessary.
    if((addr = ip->addrs[INDIRECT]) == 0){
  1013d4:	8b 40 4c             	mov    0x4c(%eax),%eax
  1013d7:	85 c0                	test   %eax,%eax
  1013d9:	75 17                	jne    1013f2 <bmap+0x72>
      if(!alloc)
  1013db:	85 c9                	test   %ecx,%ecx
  1013dd:	75 09                	jne    1013e8 <bmap+0x68>
    }
    brelse(bp);
    return addr;
  }

  panic("bmap: out of range");
  1013df:	b8 ff ff ff ff       	mov    $0xffffffff,%eax
  1013e4:	eb d2                	jmp    1013b8 <bmap+0x38>
  1013e6:	66 90                	xchg   %ax,%ax
  if(bn < NINDIRECT){
    // Load indirect block, allocating if necessary.
    if((addr = ip->addrs[INDIRECT]) == 0){
      if(!alloc)
        return -1;
      ip->addrs[INDIRECT] = addr = balloc(ip->dev);
  1013e8:	8b 03                	mov    (%ebx),%eax
  1013ea:	e8 c1 fe ff ff       	call   1012b0 <balloc>
  1013ef:	89 43 4c             	mov    %eax,0x4c(%ebx)
    }
    bp = bread(ip->dev, addr);
  1013f2:	89 44 24 04          	mov    %eax,0x4(%esp)
  1013f6:	8b 03                	mov    (%ebx),%eax
  1013f8:	89 04 24             	mov    %eax,(%esp)
  1013fb:	e8 b0 ec ff ff       	call   1000b0 <bread>
    a = (uint*)bp->data;
  
    if((addr = a[bn]) == 0){
  101400:	8d 7c b8 18          	lea    0x18(%eax,%edi,4),%edi
    if((addr = ip->addrs[INDIRECT]) == 0){
      if(!alloc)
        return -1;
      ip->addrs[INDIRECT] = addr = balloc(ip->dev);
    }
    bp = bread(ip->dev, addr);
  101404:	89 c2                	mov    %eax,%edx
    a = (uint*)bp->data;
  
    if((addr = a[bn]) == 0){
  101406:	8b 07                	mov    (%edi),%eax
  101408:	85 c0                	test   %eax,%eax
  10140a:	75 34                	jne    101440 <bmap+0xc0>
      if(!alloc){
  10140c:	85 f6                	test   %esi,%esi
  10140e:	75 10                	jne    101420 <bmap+0xa0>
        brelse(bp);
  101410:	89 14 24             	mov    %edx,(%esp)
  101413:	e8 e8 eb ff ff       	call   100000 <brelse>
  101418:	b8 ff ff ff ff       	mov    $0xffffffff,%eax
        return -1;
  10141d:	eb 99                	jmp    1013b8 <bmap+0x38>
  10141f:	90                   	nop
      }
      a[bn] = addr = balloc(ip->dev);
  101420:	8b 03                	mov    (%ebx),%eax
  101422:	89 55 e0             	mov    %edx,-0x20(%ebp)
  101425:	e8 86 fe ff ff       	call   1012b0 <balloc>
      bwrite(bp);
  10142a:	8b 55 e0             	mov    -0x20(%ebp),%edx
    if((addr = a[bn]) == 0){
      if(!alloc){
        brelse(bp);
        return -1;
      }
      a[bn] = addr = balloc(ip->dev);
  10142d:	89 07                	mov    %eax,(%edi)
      bwrite(bp);
  10142f:	89 45 e4             	mov    %eax,-0x1c(%ebp)
  101432:	89 14 24             	mov    %edx,(%esp)
  101435:	e8 46 ec ff ff       	call   100080 <bwrite>
  10143a:	8b 55 e0             	mov    -0x20(%ebp),%edx
  10143d:	8b 45 e4             	mov    -0x1c(%ebp),%eax
    }
    brelse(bp);
  101440:	89 45 e4             	mov    %eax,-0x1c(%ebp)
  101443:	89 14 24             	mov    %edx,(%esp)
  101446:	e8 b5 eb ff ff       	call   100000 <brelse>
    return addr;
  10144b:	8b 45 e4             	mov    -0x1c(%ebp),%eax
  10144e:	e9 65 ff ff ff       	jmp    1013b8 <bmap+0x38>
  }

  panic("bmap: out of range");
  101453:	c7 04 24 40 60 10 00 	movl   $0x106040,(%esp)
  10145a:	e8 c1 f4 ff ff       	call   100920 <panic>
  10145f:	90                   	nop

00101460 <readi>:
}

// Read data from inode.
int
readi(struct inode *ip, char *dst, uint off, uint n)
{
  101460:	55                   	push   %ebp
  101461:	89 e5                	mov    %esp,%ebp
  101463:	83 ec 38             	sub    $0x38,%esp
  101466:	89 5d f4             	mov    %ebx,-0xc(%ebp)
  101469:	8b 5d 08             	mov    0x8(%ebp),%ebx
  10146c:	8b 45 14             	mov    0x14(%ebp),%eax
  10146f:	89 75 f8             	mov    %esi,-0x8(%ebp)
  101472:	8b 75 10             	mov    0x10(%ebp),%esi
  101475:	89 7d fc             	mov    %edi,-0x4(%ebp)
  101478:	8b 7d 0c             	mov    0xc(%ebp),%edi
  uint tot, m;
  struct buf *bp;

  if(ip->type == T_DEV){
  10147b:	66 83 7b 10 03       	cmpw   $0x3,0x10(%ebx)
}

// Read data from inode.
int
readi(struct inode *ip, char *dst, uint off, uint n)
{
  101480:	89 45 e4             	mov    %eax,-0x1c(%ebp)
  uint tot, m;
  struct buf *bp;

  if(ip->type == T_DEV){
  101483:	74 1b                	je     1014a0 <readi+0x40>
    if(ip->major < 0 || ip->major >= NDEV || !devsw[ip->major].read)
      return -1;
    return devsw[ip->major].read(ip, dst, n);
  }

  if(off > ip->size || off + n < off)
  101485:	8b 43 18             	mov    0x18(%ebx),%eax
  101488:	39 f0                	cmp    %esi,%eax
  10148a:	73 44                	jae    1014d0 <readi+0x70>
    bp = bread(ip->dev, bmap(ip, off/BSIZE, 0));
    m = min(n - tot, BSIZE - off%BSIZE);
    memmove(dst, bp->data + off%BSIZE, m);
    brelse(bp);
  }
  return n;
  10148c:	b8 ff ff ff ff       	mov    $0xffffffff,%eax
}
  101491:	8b 5d f4             	mov    -0xc(%ebp),%ebx
  101494:	8b 75 f8             	mov    -0x8(%ebp),%esi
  101497:	8b 7d fc             	mov    -0x4(%ebp),%edi
  10149a:	89 ec                	mov    %ebp,%esp
  10149c:	5d                   	pop    %ebp
  10149d:	c3                   	ret    
  10149e:	66 90                	xchg   %ax,%ax
{
  uint tot, m;
  struct buf *bp;

  if(ip->type == T_DEV){
    if(ip->major < 0 || ip->major >= NDEV || !devsw[ip->major].read)
  1014a0:	0f b7 43 12          	movzwl 0x12(%ebx),%eax
  1014a4:	66 83 f8 09          	cmp    $0x9,%ax
  1014a8:	77 e2                	ja     10148c <readi+0x2c>
  1014aa:	98                   	cwtl   
  1014ab:	8b 04 c5 20 9a 10 00 	mov    0x109a20(,%eax,8),%eax
  1014b2:	85 c0                	test   %eax,%eax
  1014b4:	74 d6                	je     10148c <readi+0x2c>
      return -1;
    return devsw[ip->major].read(ip, dst, n);
  1014b6:	8b 55 e4             	mov    -0x1c(%ebp),%edx
    m = min(n - tot, BSIZE - off%BSIZE);
    memmove(dst, bp->data + off%BSIZE, m);
    brelse(bp);
  }
  return n;
}
  1014b9:	8b 5d f4             	mov    -0xc(%ebp),%ebx
  1014bc:	8b 75 f8             	mov    -0x8(%ebp),%esi
  1014bf:	8b 7d fc             	mov    -0x4(%ebp),%edi
  struct buf *bp;

  if(ip->type == T_DEV){
    if(ip->major < 0 || ip->major >= NDEV || !devsw[ip->major].read)
      return -1;
    return devsw[ip->major].read(ip, dst, n);
  1014c2:	89 55 10             	mov    %edx,0x10(%ebp)
    m = min(n - tot, BSIZE - off%BSIZE);
    memmove(dst, bp->data + off%BSIZE, m);
    brelse(bp);
  }
  return n;
}
  1014c5:	89 ec                	mov    %ebp,%esp
  1014c7:	5d                   	pop    %ebp
  struct buf *bp;

  if(ip->type == T_DEV){
    if(ip->major < 0 || ip->major >= NDEV || !devsw[ip->major].read)
      return -1;
    return devsw[ip->major].read(ip, dst, n);
  1014c8:	ff e0                	jmp    *%eax
  1014ca:	8d b6 00 00 00 00    	lea    0x0(%esi),%esi
  }

  if(off > ip->size || off + n < off)
  1014d0:	8b 55 e4             	mov    -0x1c(%ebp),%edx
  1014d3:	01 f2                	add    %esi,%edx
  1014d5:	72 b5                	jb     10148c <readi+0x2c>
    return -1;
  if(off + n > ip->size)
  1014d7:	39 d0                	cmp    %edx,%eax
  1014d9:	73 05                	jae    1014e0 <readi+0x80>
    n = ip->size - off;
  1014db:	29 f0                	sub    %esi,%eax
  1014dd:	89 45 e4             	mov    %eax,-0x1c(%ebp)

  for(tot=0; tot<n; tot+=m, off+=m, dst+=m){
  1014e0:	8b 55 e4             	mov    -0x1c(%ebp),%edx
  1014e3:	85 d2                	test   %edx,%edx
  1014e5:	74 7e                	je     101565 <readi+0x105>
  1014e7:	c7 45 e0 00 00 00 00 	movl   $0x0,-0x20(%ebp)
    bp = bread(ip->dev, bmap(ip, off/BSIZE, 0));
    m = min(n - tot, BSIZE - off%BSIZE);
  1014ee:	89 7d dc             	mov    %edi,-0x24(%ebp)
  1014f1:	8d b4 26 00 00 00 00 	lea    0x0(%esi,%eiz,1),%esi
    return -1;
  if(off + n > ip->size)
    n = ip->size - off;

  for(tot=0; tot<n; tot+=m, off+=m, dst+=m){
    bp = bread(ip->dev, bmap(ip, off/BSIZE, 0));
  1014f8:	89 f2                	mov    %esi,%edx
  1014fa:	31 c9                	xor    %ecx,%ecx
  1014fc:	c1 ea 09             	shr    $0x9,%edx
  1014ff:	89 d8                	mov    %ebx,%eax
  101501:	e8 7a fe ff ff       	call   101380 <bmap>
    m = min(n - tot, BSIZE - off%BSIZE);
  101506:	bf 00 02 00 00       	mov    $0x200,%edi
    return -1;
  if(off + n > ip->size)
    n = ip->size - off;

  for(tot=0; tot<n; tot+=m, off+=m, dst+=m){
    bp = bread(ip->dev, bmap(ip, off/BSIZE, 0));
  10150b:	89 44 24 04          	mov    %eax,0x4(%esp)
  10150f:	8b 03                	mov    (%ebx),%eax
  101511:	89 04 24             	mov    %eax,(%esp)
  101514:	e8 97 eb ff ff       	call   1000b0 <bread>
    m = min(n - tot, BSIZE - off%BSIZE);
  101519:	8b 4d e4             	mov    -0x1c(%ebp),%ecx
  10151c:	2b 4d e0             	sub    -0x20(%ebp),%ecx
    return -1;
  if(off + n > ip->size)
    n = ip->size - off;

  for(tot=0; tot<n; tot+=m, off+=m, dst+=m){
    bp = bread(ip->dev, bmap(ip, off/BSIZE, 0));
  10151f:	89 c2                	mov    %eax,%edx
    m = min(n - tot, BSIZE - off%BSIZE);
  101521:	89 f0                	mov    %esi,%eax
  101523:	25 ff 01 00 00       	and    $0x1ff,%eax
  101528:	29 c7                	sub    %eax,%edi
  10152a:	39 cf                	cmp    %ecx,%edi
  10152c:	76 02                	jbe    101530 <readi+0xd0>
  10152e:	89 cf                	mov    %ecx,%edi
    memmove(dst, bp->data + off%BSIZE, m);
  101530:	8d 44 02 18          	lea    0x18(%edx,%eax,1),%eax
  if(off > ip->size || off + n < off)
    return -1;
  if(off + n > ip->size)
    n = ip->size - off;

  for(tot=0; tot<n; tot+=m, off+=m, dst+=m){
  101534:	01 fe                	add    %edi,%esi
    bp = bread(ip->dev, bmap(ip, off/BSIZE, 0));
    m = min(n - tot, BSIZE - off%BSIZE);
    memmove(dst, bp->data + off%BSIZE, m);
  101536:	89 7c 24 08          	mov    %edi,0x8(%esp)
  10153a:	89 44 24 04          	mov    %eax,0x4(%esp)
  10153e:	8b 45 dc             	mov    -0x24(%ebp),%eax
  101541:	89 04 24             	mov    %eax,(%esp)
  101544:	89 55 d8             	mov    %edx,-0x28(%ebp)
  101547:	e8 44 2b 00 00       	call   104090 <memmove>
    brelse(bp);
  10154c:	8b 55 d8             	mov    -0x28(%ebp),%edx
  10154f:	89 14 24             	mov    %edx,(%esp)
  101552:	e8 a9 ea ff ff       	call   100000 <brelse>
  if(off > ip->size || off + n < off)
    return -1;
  if(off + n > ip->size)
    n = ip->size - off;

  for(tot=0; tot<n; tot+=m, off+=m, dst+=m){
  101557:	01 7d e0             	add    %edi,-0x20(%ebp)
  10155a:	8b 55 e0             	mov    -0x20(%ebp),%edx
  10155d:	01 7d dc             	add    %edi,-0x24(%ebp)
  101560:	39 55 e4             	cmp    %edx,-0x1c(%ebp)
  101563:	77 93                	ja     1014f8 <readi+0x98>
    bp = bread(ip->dev, bmap(ip, off/BSIZE, 0));
    m = min(n - tot, BSIZE - off%BSIZE);
    memmove(dst, bp->data + off%BSIZE, m);
    brelse(bp);
  }
  return n;
  101565:	8b 45 e4             	mov    -0x1c(%ebp),%eax
  101568:	e9 24 ff ff ff       	jmp    101491 <readi+0x31>
  10156d:	8d 76 00             	lea    0x0(%esi),%esi

00101570 <iupdate>:
}

// Copy inode, which has changed, from memory to disk.
void
iupdate(struct inode *ip)
{
  101570:	55                   	push   %ebp
  101571:	89 e5                	mov    %esp,%ebp
  101573:	56                   	push   %esi
  101574:	53                   	push   %ebx
  101575:	83 ec 10             	sub    $0x10,%esp
  101578:	8b 5d 08             	mov    0x8(%ebp),%ebx
  struct buf *bp;
  struct dinode *dip;

  bp = bread(ip->dev, IBLOCK(ip->inum));
  10157b:	8b 43 04             	mov    0x4(%ebx),%eax
  10157e:	c1 e8 03             	shr    $0x3,%eax
  101581:	83 c0 02             	add    $0x2,%eax
  101584:	89 44 24 04          	mov    %eax,0x4(%esp)
  101588:	8b 03                	mov    (%ebx),%eax
  10158a:	89 04 24             	mov    %eax,(%esp)
  10158d:	e8 1e eb ff ff       	call   1000b0 <bread>
  dip = (struct dinode*)bp->data + ip->inum%IPB;
  dip->type = ip->type;
  101592:	0f b7 53 10          	movzwl 0x10(%ebx),%edx
iupdate(struct inode *ip)
{
  struct buf *bp;
  struct dinode *dip;

  bp = bread(ip->dev, IBLOCK(ip->inum));
  101596:	89 c6                	mov    %eax,%esi
  dip = (struct dinode*)bp->data + ip->inum%IPB;
  101598:	8b 43 04             	mov    0x4(%ebx),%eax
  10159b:	83 e0 07             	and    $0x7,%eax
  10159e:	c1 e0 06             	shl    $0x6,%eax
  1015a1:	8d 44 06 18          	lea    0x18(%esi,%eax,1),%eax
  dip->type = ip->type;
  1015a5:	66 89 10             	mov    %dx,(%eax)
  dip->major = ip->major;
  1015a8:	0f b7 53 12          	movzwl 0x12(%ebx),%edx
  1015ac:	66 89 50 02          	mov    %dx,0x2(%eax)
  dip->minor = ip->minor;
  1015b0:	0f b7 53 14          	movzwl 0x14(%ebx),%edx
  1015b4:	66 89 50 04          	mov    %dx,0x4(%eax)
  dip->nlink = ip->nlink;
  1015b8:	0f b7 53 16          	movzwl 0x16(%ebx),%edx
  1015bc:	66 89 50 06          	mov    %dx,0x6(%eax)
  dip->size = ip->size;
  1015c0:	8b 53 18             	mov    0x18(%ebx),%edx
  memmove(dip->addrs, ip->addrs, sizeof(ip->addrs));
  1015c3:	83 c3 1c             	add    $0x1c,%ebx
  dip = (struct dinode*)bp->data + ip->inum%IPB;
  dip->type = ip->type;
  dip->major = ip->major;
  dip->minor = ip->minor;
  dip->nlink = ip->nlink;
  dip->size = ip->size;
  1015c6:	89 50 08             	mov    %edx,0x8(%eax)
  memmove(dip->addrs, ip->addrs, sizeof(ip->addrs));
  1015c9:	83 c0 0c             	add    $0xc,%eax
  1015cc:	89 5c 24 04          	mov    %ebx,0x4(%esp)
  1015d0:	c7 44 24 08 34 00 00 	movl   $0x34,0x8(%esp)
  1015d7:	00 
  1015d8:	89 04 24             	mov    %eax,(%esp)
  1015db:	e8 b0 2a 00 00       	call   104090 <memmove>
  bwrite(bp);
  1015e0:	89 34 24             	mov    %esi,(%esp)
  1015e3:	e8 98 ea ff ff       	call   100080 <bwrite>
  brelse(bp);
  1015e8:	89 75 08             	mov    %esi,0x8(%ebp)
}
  1015eb:	83 c4 10             	add    $0x10,%esp
  1015ee:	5b                   	pop    %ebx
  1015ef:	5e                   	pop    %esi
  1015f0:	5d                   	pop    %ebp
  dip->minor = ip->minor;
  dip->nlink = ip->nlink;
  dip->size = ip->size;
  memmove(dip->addrs, ip->addrs, sizeof(ip->addrs));
  bwrite(bp);
  brelse(bp);
  1015f1:	e9 0a ea ff ff       	jmp    100000 <brelse>
  1015f6:	8d 76 00             	lea    0x0(%esi),%esi
  1015f9:	8d bc 27 00 00 00 00 	lea    0x0(%edi,%eiz,1),%edi

00101600 <writei>:
}

// Write data to inode.
int
writei(struct inode *ip, char *src, uint off, uint n)
{
  101600:	55                   	push   %ebp
  101601:	89 e5                	mov    %esp,%ebp
  101603:	57                   	push   %edi
  101604:	56                   	push   %esi
  101605:	53                   	push   %ebx
  101606:	83 ec 2c             	sub    $0x2c,%esp
  101609:	8b 75 08             	mov    0x8(%ebp),%esi
  10160c:	8b 45 0c             	mov    0xc(%ebp),%eax
  10160f:	8b 55 14             	mov    0x14(%ebp),%edx
  101612:	8b 5d 10             	mov    0x10(%ebp),%ebx
  uint tot, m;
  struct buf *bp;

  if(ip->type == T_DEV){
  101615:	66 83 7e 10 03       	cmpw   $0x3,0x10(%esi)
}

// Write data to inode.
int
writei(struct inode *ip, char *src, uint off, uint n)
{
  10161a:	89 45 e0             	mov    %eax,-0x20(%ebp)
  10161d:	89 55 dc             	mov    %edx,-0x24(%ebp)
  uint tot, m;
  struct buf *bp;

  if(ip->type == T_DEV){
  101620:	0f 84 c2 00 00 00    	je     1016e8 <writei+0xe8>
    if(ip->major < 0 || ip->major >= NDEV || !devsw[ip->major].write)
      return -1;
    return devsw[ip->major].write(ip, src, n);
  }

  if(off + n < off)
  101626:	8b 45 dc             	mov    -0x24(%ebp),%eax
  101629:	01 d8                	add    %ebx,%eax
  10162b:	0f 82 c1 00 00 00    	jb     1016f2 <writei+0xf2>
    return -1;
  if(off + n > MAXFILE*BSIZE)
  101631:	3d 00 18 01 00       	cmp    $0x11800,%eax
  101636:	76 0a                	jbe    101642 <writei+0x42>
    n = MAXFILE*BSIZE - off;
  101638:	c7 45 dc 00 18 01 00 	movl   $0x11800,-0x24(%ebp)
  10163f:	29 5d dc             	sub    %ebx,-0x24(%ebp)

  for(tot=0; tot<n; tot+=m, off+=m, src+=m){
  101642:	8b 4d dc             	mov    -0x24(%ebp),%ecx
  101645:	85 c9                	test   %ecx,%ecx
  101647:	0f 84 8b 00 00 00    	je     1016d8 <writei+0xd8>
  10164d:	c7 45 e4 00 00 00 00 	movl   $0x0,-0x1c(%ebp)
  101654:	8d 74 26 00          	lea    0x0(%esi,%eiz,1),%esi
    bp = bread(ip->dev, bmap(ip, off/BSIZE, 1));
  101658:	89 da                	mov    %ebx,%edx
  10165a:	b9 01 00 00 00       	mov    $0x1,%ecx
  10165f:	c1 ea 09             	shr    $0x9,%edx
  101662:	89 f0                	mov    %esi,%eax
  101664:	e8 17 fd ff ff       	call   101380 <bmap>
    m = min(n - tot, BSIZE - off%BSIZE);
  101669:	bf 00 02 00 00       	mov    $0x200,%edi
    return -1;
  if(off + n > MAXFILE*BSIZE)
    n = MAXFILE*BSIZE - off;

  for(tot=0; tot<n; tot+=m, off+=m, src+=m){
    bp = bread(ip->dev, bmap(ip, off/BSIZE, 1));
  10166e:	89 44 24 04          	mov    %eax,0x4(%esp)
  101672:	8b 06                	mov    (%esi),%eax
  101674:	89 04 24             	mov    %eax,(%esp)
  101677:	e8 34 ea ff ff       	call   1000b0 <bread>
    m = min(n - tot, BSIZE - off%BSIZE);
  10167c:	8b 4d dc             	mov    -0x24(%ebp),%ecx
  10167f:	2b 4d e4             	sub    -0x1c(%ebp),%ecx
    return -1;
  if(off + n > MAXFILE*BSIZE)
    n = MAXFILE*BSIZE - off;

  for(tot=0; tot<n; tot+=m, off+=m, src+=m){
    bp = bread(ip->dev, bmap(ip, off/BSIZE, 1));
  101682:	89 c2                	mov    %eax,%edx
    m = min(n - tot, BSIZE - off%BSIZE);
  101684:	89 d8                	mov    %ebx,%eax
  101686:	25 ff 01 00 00       	and    $0x1ff,%eax
  10168b:	29 c7                	sub    %eax,%edi
  10168d:	39 cf                	cmp    %ecx,%edi
  10168f:	76 02                	jbe    101693 <writei+0x93>
  101691:	89 cf                	mov    %ecx,%edi
    memmove(bp->data + off%BSIZE, src, m);
  101693:	89 7c 24 08          	mov    %edi,0x8(%esp)
  101697:	8b 4d e0             	mov    -0x20(%ebp),%ecx
  10169a:	8d 44 02 18          	lea    0x18(%edx,%eax,1),%eax
  10169e:	89 04 24             	mov    %eax,(%esp)
  if(off + n < off)
    return -1;
  if(off + n > MAXFILE*BSIZE)
    n = MAXFILE*BSIZE - off;

  for(tot=0; tot<n; tot+=m, off+=m, src+=m){
  1016a1:	01 fb                	add    %edi,%ebx
    bp = bread(ip->dev, bmap(ip, off/BSIZE, 1));
    m = min(n - tot, BSIZE - off%BSIZE);
    memmove(bp->data + off%BSIZE, src, m);
  1016a3:	89 4c 24 04          	mov    %ecx,0x4(%esp)
  1016a7:	89 55 d8             	mov    %edx,-0x28(%ebp)
  1016aa:	e8 e1 29 00 00       	call   104090 <memmove>
    bwrite(bp);
  1016af:	8b 55 d8             	mov    -0x28(%ebp),%edx
  1016b2:	89 14 24             	mov    %edx,(%esp)
  1016b5:	e8 c6 e9 ff ff       	call   100080 <bwrite>
    brelse(bp);
  1016ba:	8b 55 d8             	mov    -0x28(%ebp),%edx
  1016bd:	89 14 24             	mov    %edx,(%esp)
  1016c0:	e8 3b e9 ff ff       	call   100000 <brelse>
  if(off + n < off)
    return -1;
  if(off + n > MAXFILE*BSIZE)
    n = MAXFILE*BSIZE - off;

  for(tot=0; tot<n; tot+=m, off+=m, src+=m){
  1016c5:	01 7d e4             	add    %edi,-0x1c(%ebp)
  1016c8:	8b 45 e4             	mov    -0x1c(%ebp),%eax
  1016cb:	01 7d e0             	add    %edi,-0x20(%ebp)
  1016ce:	39 45 dc             	cmp    %eax,-0x24(%ebp)
  1016d1:	77 85                	ja     101658 <writei+0x58>
    memmove(bp->data + off%BSIZE, src, m);
    bwrite(bp);
    brelse(bp);
  }

  if(n > 0 && off > ip->size){
  1016d3:	3b 5e 18             	cmp    0x18(%esi),%ebx
  1016d6:	77 28                	ja     101700 <writei+0x100>
    ip->size = off;
    iupdate(ip);
  }
  return n;
  1016d8:	8b 45 dc             	mov    -0x24(%ebp),%eax
}
  1016db:	83 c4 2c             	add    $0x2c,%esp
  1016de:	5b                   	pop    %ebx
  1016df:	5e                   	pop    %esi
  1016e0:	5f                   	pop    %edi
  1016e1:	5d                   	pop    %ebp
  1016e2:	c3                   	ret    
  1016e3:	90                   	nop
  1016e4:	8d 74 26 00          	lea    0x0(%esi,%eiz,1),%esi
{
  uint tot, m;
  struct buf *bp;

  if(ip->type == T_DEV){
    if(ip->major < 0 || ip->major >= NDEV || !devsw[ip->major].write)
  1016e8:	0f b7 46 12          	movzwl 0x12(%esi),%eax
  1016ec:	66 83 f8 09          	cmp    $0x9,%ax
  1016f0:	76 1b                	jbe    10170d <writei+0x10d>
  if(n > 0 && off > ip->size){
    ip->size = off;
    iupdate(ip);
  }
  return n;
}
  1016f2:	83 c4 2c             	add    $0x2c,%esp

  if(n > 0 && off > ip->size){
    ip->size = off;
    iupdate(ip);
  }
  return n;
  1016f5:	b8 ff ff ff ff       	mov    $0xffffffff,%eax
}
  1016fa:	5b                   	pop    %ebx
  1016fb:	5e                   	pop    %esi
  1016fc:	5f                   	pop    %edi
  1016fd:	5d                   	pop    %ebp
  1016fe:	c3                   	ret    
  1016ff:	90                   	nop
    bwrite(bp);
    brelse(bp);
  }

  if(n > 0 && off > ip->size){
    ip->size = off;
  101700:	89 5e 18             	mov    %ebx,0x18(%esi)
    iupdate(ip);
  101703:	89 34 24             	mov    %esi,(%esp)
  101706:	e8 65 fe ff ff       	call   101570 <iupdate>
  10170b:	eb cb                	jmp    1016d8 <writei+0xd8>
{
  uint tot, m;
  struct buf *bp;

  if(ip->type == T_DEV){
    if(ip->major < 0 || ip->major >= NDEV || !devsw[ip->major].write)
  10170d:	98                   	cwtl   
  10170e:	8b 04 c5 24 9a 10 00 	mov    0x109a24(,%eax,8),%eax
  101715:	85 c0                	test   %eax,%eax
  101717:	74 d9                	je     1016f2 <writei+0xf2>
      return -1;
    return devsw[ip->major].write(ip, src, n);
  101719:	89 55 10             	mov    %edx,0x10(%ebp)
  if(n > 0 && off > ip->size){
    ip->size = off;
    iupdate(ip);
  }
  return n;
}
  10171c:	83 c4 2c             	add    $0x2c,%esp
  10171f:	5b                   	pop    %ebx
  101720:	5e                   	pop    %esi
  101721:	5f                   	pop    %edi
  101722:	5d                   	pop    %ebp
  struct buf *bp;

  if(ip->type == T_DEV){
    if(ip->major < 0 || ip->major >= NDEV || !devsw[ip->major].write)
      return -1;
    return devsw[ip->major].write(ip, src, n);
  101723:	ff e0                	jmp    *%eax
  101725:	8d 74 26 00          	lea    0x0(%esi,%eiz,1),%esi
  101729:	8d bc 27 00 00 00 00 	lea    0x0(%edi,%eiz,1),%edi

00101730 <namecmp>:

// Directories

int
namecmp(const char *s, const char *t)
{
  101730:	55                   	push   %ebp
  101731:	89 e5                	mov    %esp,%ebp
  101733:	83 ec 18             	sub    $0x18,%esp
  return strncmp(s, t, DIRSIZ);
  101736:	8b 45 0c             	mov    0xc(%ebp),%eax
  101739:	c7 44 24 08 0e 00 00 	movl   $0xe,0x8(%esp)
  101740:	00 
  101741:	89 44 24 04          	mov    %eax,0x4(%esp)
  101745:	8b 45 08             	mov    0x8(%ebp),%eax
  101748:	89 04 24             	mov    %eax,(%esp)
  10174b:	e8 a0 29 00 00       	call   1040f0 <strncmp>
}
  101750:	c9                   	leave  
  101751:	c3                   	ret    
  101752:	8d b4 26 00 00 00 00 	lea    0x0(%esi,%eiz,1),%esi
  101759:	8d bc 27 00 00 00 00 	lea    0x0(%edi,%eiz,1),%edi

00101760 <dirlookup>:
// Look for a directory entry in a directory.
// If found, set *poff to byte offset of entry.
// Caller must have already locked dp.
struct inode*
dirlookup(struct inode *dp, char *name, uint *poff)
{
  101760:	55                   	push   %ebp
  101761:	89 e5                	mov    %esp,%ebp
  101763:	57                   	push   %edi
  101764:	56                   	push   %esi
  101765:	53                   	push   %ebx
  101766:	83 ec 3c             	sub    $0x3c,%esp
  101769:	8b 45 08             	mov    0x8(%ebp),%eax
  10176c:	8b 55 10             	mov    0x10(%ebp),%edx
  10176f:	8b 5d 0c             	mov    0xc(%ebp),%ebx
  uint off, inum;
  struct buf *bp;
  struct dirent *de;

  if(dp->type != T_DIR)
  101772:	66 83 78 10 01       	cmpw   $0x1,0x10(%eax)
// Look for a directory entry in a directory.
// If found, set *poff to byte offset of entry.
// Caller must have already locked dp.
struct inode*
dirlookup(struct inode *dp, char *name, uint *poff)
{
  101777:	89 45 dc             	mov    %eax,-0x24(%ebp)
  10177a:	89 55 d4             	mov    %edx,-0x2c(%ebp)
  uint off, inum;
  struct buf *bp;
  struct dirent *de;

  if(dp->type != T_DIR)
  10177d:	0f 85 d0 00 00 00    	jne    101853 <dirlookup+0xf3>
    panic("dirlookup not DIR");

  for(off = 0; off < dp->size; off += BSIZE){
  101783:	8b 70 18             	mov    0x18(%eax),%esi
  uint off, inum;
  struct buf *bp;
  struct dirent *de;

  if(dp->type != T_DIR)
    panic("dirlookup not DIR");
  101786:	c7 45 e0 00 00 00 00 	movl   $0x0,-0x20(%ebp)

  for(off = 0; off < dp->size; off += BSIZE){
  10178d:	85 f6                	test   %esi,%esi
  10178f:	0f 84 b4 00 00 00    	je     101849 <dirlookup+0xe9>
    bp = bread(dp->dev, bmap(dp, off / BSIZE, 0));
  101795:	8b 55 e0             	mov    -0x20(%ebp),%edx
  101798:	31 c9                	xor    %ecx,%ecx
  10179a:	8b 45 dc             	mov    -0x24(%ebp),%eax
  10179d:	c1 ea 09             	shr    $0x9,%edx
  1017a0:	e8 db fb ff ff       	call   101380 <bmap>
  1017a5:	89 44 24 04          	mov    %eax,0x4(%esp)
  1017a9:	8b 4d dc             	mov    -0x24(%ebp),%ecx
  1017ac:	8b 01                	mov    (%ecx),%eax
  1017ae:	89 04 24             	mov    %eax,(%esp)
  1017b1:	e8 fa e8 ff ff       	call   1000b0 <bread>
  1017b6:	89 45 e4             	mov    %eax,-0x1c(%ebp)

// Look for a directory entry in a directory.
// If found, set *poff to byte offset of entry.
// Caller must have already locked dp.
struct inode*
dirlookup(struct inode *dp, char *name, uint *poff)
  1017b9:	8b 7d e4             	mov    -0x1c(%ebp),%edi
  if(dp->type != T_DIR)
    panic("dirlookup not DIR");

  for(off = 0; off < dp->size; off += BSIZE){
    bp = bread(dp->dev, bmap(dp, off / BSIZE, 0));
    for(de = (struct dirent*)bp->data;
  1017bc:	83 c0 18             	add    $0x18,%eax
  1017bf:	89 45 d8             	mov    %eax,-0x28(%ebp)
  1017c2:	89 c6                	mov    %eax,%esi

// Look for a directory entry in a directory.
// If found, set *poff to byte offset of entry.
// Caller must have already locked dp.
struct inode*
dirlookup(struct inode *dp, char *name, uint *poff)
  1017c4:	81 c7 18 02 00 00    	add    $0x218,%edi
  1017ca:	eb 0b                	jmp    1017d7 <dirlookup+0x77>
  1017cc:	8d 74 26 00          	lea    0x0(%esi,%eiz,1),%esi

  for(off = 0; off < dp->size; off += BSIZE){
    bp = bread(dp->dev, bmap(dp, off / BSIZE, 0));
    for(de = (struct dirent*)bp->data;
        de < (struct dirent*)(bp->data + BSIZE);
        de++){
  1017d0:	83 c6 10             	add    $0x10,%esi
  if(dp->type != T_DIR)
    panic("dirlookup not DIR");

  for(off = 0; off < dp->size; off += BSIZE){
    bp = bread(dp->dev, bmap(dp, off / BSIZE, 0));
    for(de = (struct dirent*)bp->data;
  1017d3:	39 fe                	cmp    %edi,%esi
  1017d5:	74 51                	je     101828 <dirlookup+0xc8>
        de < (struct dirent*)(bp->data + BSIZE);
        de++){
      if(de->inum == 0)
  1017d7:	66 83 3e 00          	cmpw   $0x0,(%esi)
  1017db:	74 f3                	je     1017d0 <dirlookup+0x70>
        continue;
      if(namecmp(name, de->name) == 0){
  1017dd:	8d 46 02             	lea    0x2(%esi),%eax
  1017e0:	89 44 24 04          	mov    %eax,0x4(%esp)
  1017e4:	89 1c 24             	mov    %ebx,(%esp)
  1017e7:	e8 44 ff ff ff       	call   101730 <namecmp>
  1017ec:	85 c0                	test   %eax,%eax
  1017ee:	75 e0                	jne    1017d0 <dirlookup+0x70>
        // entry matches path element
        if(poff)
  1017f0:	8b 5d d4             	mov    -0x2c(%ebp),%ebx
  1017f3:	85 db                	test   %ebx,%ebx
  1017f5:	74 0e                	je     101805 <dirlookup+0xa5>
          *poff = off + (uchar*)de - bp->data;
  1017f7:	8b 55 e0             	mov    -0x20(%ebp),%edx
  1017fa:	8b 4d d4             	mov    -0x2c(%ebp),%ecx
  1017fd:	8d 04 16             	lea    (%esi,%edx,1),%eax
  101800:	2b 45 d8             	sub    -0x28(%ebp),%eax
  101803:	89 01                	mov    %eax,(%ecx)
        inum = de->inum;
        brelse(bp);
  101805:	8b 45 e4             	mov    -0x1c(%ebp),%eax
        continue;
      if(namecmp(name, de->name) == 0){
        // entry matches path element
        if(poff)
          *poff = off + (uchar*)de - bp->data;
        inum = de->inum;
  101808:	0f b7 1e             	movzwl (%esi),%ebx
        brelse(bp);
  10180b:	89 04 24             	mov    %eax,(%esp)
  10180e:	e8 ed e7 ff ff       	call   100000 <brelse>
        return iget(dp->dev, inum);
  101813:	8b 4d dc             	mov    -0x24(%ebp),%ecx
  101816:	89 da                	mov    %ebx,%edx
  101818:	8b 01                	mov    (%ecx),%eax
      }
    }
    brelse(bp);
  }
  return 0;
}
  10181a:	83 c4 3c             	add    $0x3c,%esp
  10181d:	5b                   	pop    %ebx
  10181e:	5e                   	pop    %esi
  10181f:	5f                   	pop    %edi
  101820:	5d                   	pop    %ebp
        // entry matches path element
        if(poff)
          *poff = off + (uchar*)de - bp->data;
        inum = de->inum;
        brelse(bp);
        return iget(dp->dev, inum);
  101821:	e9 7a f9 ff ff       	jmp    1011a0 <iget>
  101826:	66 90                	xchg   %ax,%ax
      }
    }
    brelse(bp);
  101828:	8b 45 e4             	mov    -0x1c(%ebp),%eax
  10182b:	89 04 24             	mov    %eax,(%esp)
  10182e:	e8 cd e7 ff ff       	call   100000 <brelse>
  struct dirent *de;

  if(dp->type != T_DIR)
    panic("dirlookup not DIR");

  for(off = 0; off < dp->size; off += BSIZE){
  101833:	8b 55 dc             	mov    -0x24(%ebp),%edx
  101836:	81 45 e0 00 02 00 00 	addl   $0x200,-0x20(%ebp)
  10183d:	8b 4d e0             	mov    -0x20(%ebp),%ecx
  101840:	39 4a 18             	cmp    %ecx,0x18(%edx)
  101843:	0f 87 4c ff ff ff    	ja     101795 <dirlookup+0x35>
      }
    }
    brelse(bp);
  }
  return 0;
}
  101849:	83 c4 3c             	add    $0x3c,%esp
  10184c:	31 c0                	xor    %eax,%eax
  10184e:	5b                   	pop    %ebx
  10184f:	5e                   	pop    %esi
  101850:	5f                   	pop    %edi
  101851:	5d                   	pop    %ebp
  101852:	c3                   	ret    
  uint off, inum;
  struct buf *bp;
  struct dirent *de;

  if(dp->type != T_DIR)
    panic("dirlookup not DIR");
  101853:	c7 04 24 53 60 10 00 	movl   $0x106053,(%esp)
  10185a:	e8 c1 f0 ff ff       	call   100920 <panic>
  10185f:	90                   	nop

00101860 <ialloc>:
}

// Allocate a new inode with the given type on device dev.
struct inode*
ialloc(uint dev, short type)
{
  101860:	55                   	push   %ebp
  101861:	89 e5                	mov    %esp,%ebp
  101863:	57                   	push   %edi
  101864:	56                   	push   %esi
  101865:	53                   	push   %ebx
  101866:	83 ec 3c             	sub    $0x3c,%esp
  101869:	0f b7 45 0c          	movzwl 0xc(%ebp),%eax
  int inum;
  struct buf *bp;
  struct dinode *dip;
  struct superblock sb;

  readsb(dev, &sb);
  10186d:	8d 55 dc             	lea    -0x24(%ebp),%edx
}

// Allocate a new inode with the given type on device dev.
struct inode*
ialloc(uint dev, short type)
{
  101870:	66 89 45 d6          	mov    %ax,-0x2a(%ebp)
  int inum;
  struct buf *bp;
  struct dinode *dip;
  struct superblock sb;

  readsb(dev, &sb);
  101874:	8b 45 08             	mov    0x8(%ebp),%eax
  101877:	e8 e4 f9 ff ff       	call   101260 <readsb>
  for(inum = 1; inum < sb.ninodes; inum++){  // loop over inode blocks
  10187c:	83 7d e4 01          	cmpl   $0x1,-0x1c(%ebp)
  101880:	0f 86 96 00 00 00    	jbe    10191c <ialloc+0xbc>
  101886:	be 01 00 00 00       	mov    $0x1,%esi
  10188b:	bb 01 00 00 00       	mov    $0x1,%ebx
  101890:	eb 18                	jmp    1018aa <ialloc+0x4a>
  101892:	8d b6 00 00 00 00    	lea    0x0(%esi),%esi
  101898:	83 c3 01             	add    $0x1,%ebx
      dip->type = type;
      bwrite(bp);   // mark it allocated on the disk
      brelse(bp);
      return iget(dev, inum);
    }
    brelse(bp);
  10189b:	89 3c 24             	mov    %edi,(%esp)
  struct buf *bp;
  struct dinode *dip;
  struct superblock sb;

  readsb(dev, &sb);
  for(inum = 1; inum < sb.ninodes; inum++){  // loop over inode blocks
  10189e:	89 de                	mov    %ebx,%esi
      dip->type = type;
      bwrite(bp);   // mark it allocated on the disk
      brelse(bp);
      return iget(dev, inum);
    }
    brelse(bp);
  1018a0:	e8 5b e7 ff ff       	call   100000 <brelse>
  struct buf *bp;
  struct dinode *dip;
  struct superblock sb;

  readsb(dev, &sb);
  for(inum = 1; inum < sb.ninodes; inum++){  // loop over inode blocks
  1018a5:	3b 5d e4             	cmp    -0x1c(%ebp),%ebx
  1018a8:	73 72                	jae    10191c <ialloc+0xbc>
    bp = bread(dev, IBLOCK(inum));
  1018aa:	89 f0                	mov    %esi,%eax
  1018ac:	c1 e8 03             	shr    $0x3,%eax
  1018af:	83 c0 02             	add    $0x2,%eax
  1018b2:	89 44 24 04          	mov    %eax,0x4(%esp)
  1018b6:	8b 45 08             	mov    0x8(%ebp),%eax
  1018b9:	89 04 24             	mov    %eax,(%esp)
  1018bc:	e8 ef e7 ff ff       	call   1000b0 <bread>
  1018c1:	89 c7                	mov    %eax,%edi
    dip = (struct dinode*)bp->data + inum%IPB;
  1018c3:	89 f0                	mov    %esi,%eax
  1018c5:	83 e0 07             	and    $0x7,%eax
  1018c8:	c1 e0 06             	shl    $0x6,%eax
  1018cb:	8d 54 07 18          	lea    0x18(%edi,%eax,1),%edx
    if(dip->type == 0){  // a free inode
  1018cf:	66 83 3a 00          	cmpw   $0x0,(%edx)
  1018d3:	75 c3                	jne    101898 <ialloc+0x38>
      memset(dip, 0, sizeof(*dip));
  1018d5:	89 14 24             	mov    %edx,(%esp)
  1018d8:	89 55 d0             	mov    %edx,-0x30(%ebp)
  1018db:	c7 44 24 08 40 00 00 	movl   $0x40,0x8(%esp)
  1018e2:	00 
  1018e3:	c7 44 24 04 00 00 00 	movl   $0x0,0x4(%esp)
  1018ea:	00 
  1018eb:	e8 10 27 00 00       	call   104000 <memset>
      dip->type = type;
  1018f0:	8b 55 d0             	mov    -0x30(%ebp),%edx
  1018f3:	0f b7 45 d6          	movzwl -0x2a(%ebp),%eax
  1018f7:	66 89 02             	mov    %ax,(%edx)
      bwrite(bp);   // mark it allocated on the disk
  1018fa:	89 3c 24             	mov    %edi,(%esp)
  1018fd:	e8 7e e7 ff ff       	call   100080 <bwrite>
      brelse(bp);
  101902:	89 3c 24             	mov    %edi,(%esp)
  101905:	e8 f6 e6 ff ff       	call   100000 <brelse>
      return iget(dev, inum);
  10190a:	8b 45 08             	mov    0x8(%ebp),%eax
  10190d:	89 f2                	mov    %esi,%edx
  10190f:	e8 8c f8 ff ff       	call   1011a0 <iget>
    }
    brelse(bp);
  }
  panic("ialloc: no inodes");
}
  101914:	83 c4 3c             	add    $0x3c,%esp
  101917:	5b                   	pop    %ebx
  101918:	5e                   	pop    %esi
  101919:	5f                   	pop    %edi
  10191a:	5d                   	pop    %ebp
  10191b:	c3                   	ret    
      brelse(bp);
      return iget(dev, inum);
    }
    brelse(bp);
  }
  panic("ialloc: no inodes");
  10191c:	c7 04 24 65 60 10 00 	movl   $0x106065,(%esp)
  101923:	e8 f8 ef ff ff       	call   100920 <panic>
  101928:	90                   	nop
  101929:	8d b4 26 00 00 00 00 	lea    0x0(%esi,%eiz,1),%esi

00101930 <bfree>:
}

// Free a disk block.
static void
bfree(int dev, uint b)
{
  101930:	55                   	push   %ebp
  101931:	89 e5                	mov    %esp,%ebp
  101933:	57                   	push   %edi
  101934:	56                   	push   %esi
  101935:	89 c6                	mov    %eax,%esi
  101937:	53                   	push   %ebx
  101938:	89 d3                	mov    %edx,%ebx
  10193a:	83 ec 2c             	sub    $0x2c,%esp
static void
bzero(int dev, int bno)
{
  struct buf *bp;
  
  bp = bread(dev, bno);
  10193d:	89 54 24 04          	mov    %edx,0x4(%esp)
  101941:	89 04 24             	mov    %eax,(%esp)
  101944:	e8 67 e7 ff ff       	call   1000b0 <bread>
  memset(bp->data, 0, BSIZE);
  101949:	c7 44 24 08 00 02 00 	movl   $0x200,0x8(%esp)
  101950:	00 
  101951:	c7 44 24 04 00 00 00 	movl   $0x0,0x4(%esp)
  101958:	00 
static void
bzero(int dev, int bno)
{
  struct buf *bp;
  
  bp = bread(dev, bno);
  101959:	89 c7                	mov    %eax,%edi
  memset(bp->data, 0, BSIZE);
  10195b:	8d 40 18             	lea    0x18(%eax),%eax
  10195e:	89 04 24             	mov    %eax,(%esp)
  101961:	e8 9a 26 00 00       	call   104000 <memset>
  bwrite(bp);
  101966:	89 3c 24             	mov    %edi,(%esp)
  101969:	e8 12 e7 ff ff       	call   100080 <bwrite>
  brelse(bp);
  10196e:	89 3c 24             	mov    %edi,(%esp)
  101971:	e8 8a e6 ff ff       	call   100000 <brelse>
  struct superblock sb;
  int bi, m;

  bzero(dev, b);

  readsb(dev, &sb);
  101976:	89 f0                	mov    %esi,%eax
  101978:	8d 55 dc             	lea    -0x24(%ebp),%edx
  10197b:	e8 e0 f8 ff ff       	call   101260 <readsb>
  bp = bread(dev, BBLOCK(b, sb.ninodes));
  101980:	8b 45 e4             	mov    -0x1c(%ebp),%eax
  101983:	89 da                	mov    %ebx,%edx
  101985:	c1 ea 0c             	shr    $0xc,%edx
  101988:	89 34 24             	mov    %esi,(%esp)
  bi = b % BPB;
  m = 1 << (bi % 8);
  10198b:	be 01 00 00 00       	mov    $0x1,%esi
  int bi, m;

  bzero(dev, b);

  readsb(dev, &sb);
  bp = bread(dev, BBLOCK(b, sb.ninodes));
  101990:	c1 e8 03             	shr    $0x3,%eax
  101993:	8d 44 10 03          	lea    0x3(%eax,%edx,1),%eax
  101997:	89 44 24 04          	mov    %eax,0x4(%esp)
  10199b:	e8 10 e7 ff ff       	call   1000b0 <bread>
  bi = b % BPB;
  1019a0:	89 da                	mov    %ebx,%edx
  m = 1 << (bi % 8);
  1019a2:	89 d9                	mov    %ebx,%ecx

  bzero(dev, b);

  readsb(dev, &sb);
  bp = bread(dev, BBLOCK(b, sb.ninodes));
  bi = b % BPB;
  1019a4:	81 e2 ff 0f 00 00    	and    $0xfff,%edx
  m = 1 << (bi % 8);
  1019aa:	83 e1 07             	and    $0x7,%ecx
  if((bp->data[bi/8] & m) == 0)
  1019ad:	c1 fa 03             	sar    $0x3,%edx
  bzero(dev, b);

  readsb(dev, &sb);
  bp = bread(dev, BBLOCK(b, sb.ninodes));
  bi = b % BPB;
  m = 1 << (bi % 8);
  1019b0:	d3 e6                	shl    %cl,%esi
  if((bp->data[bi/8] & m) == 0)
  1019b2:	0f b6 4c 10 18       	movzbl 0x18(%eax,%edx,1),%ecx
  int bi, m;

  bzero(dev, b);

  readsb(dev, &sb);
  bp = bread(dev, BBLOCK(b, sb.ninodes));
  1019b7:	89 c7                	mov    %eax,%edi
  bi = b % BPB;
  m = 1 << (bi % 8);
  if((bp->data[bi/8] & m) == 0)
  1019b9:	0f b6 c1             	movzbl %cl,%eax
  1019bc:	85 f0                	test   %esi,%eax
  1019be:	74 22                	je     1019e2 <bfree+0xb2>
    panic("freeing free block");
  bp->data[bi/8] &= ~m;  // Mark block free on disk.
  1019c0:	89 f0                	mov    %esi,%eax
  1019c2:	f7 d0                	not    %eax
  1019c4:	21 c8                	and    %ecx,%eax
  1019c6:	88 44 17 18          	mov    %al,0x18(%edi,%edx,1)
  bwrite(bp);
  1019ca:	89 3c 24             	mov    %edi,(%esp)
  1019cd:	e8 ae e6 ff ff       	call   100080 <bwrite>
  brelse(bp);
  1019d2:	89 3c 24             	mov    %edi,(%esp)
  1019d5:	e8 26 e6 ff ff       	call   100000 <brelse>
}
  1019da:	83 c4 2c             	add    $0x2c,%esp
  1019dd:	5b                   	pop    %ebx
  1019de:	5e                   	pop    %esi
  1019df:	5f                   	pop    %edi
  1019e0:	5d                   	pop    %ebp
  1019e1:	c3                   	ret    
  readsb(dev, &sb);
  bp = bread(dev, BBLOCK(b, sb.ninodes));
  bi = b % BPB;
  m = 1 << (bi % 8);
  if((bp->data[bi/8] & m) == 0)
    panic("freeing free block");
  1019e2:	c7 04 24 77 60 10 00 	movl   $0x106077,(%esp)
  1019e9:	e8 32 ef ff ff       	call   100920 <panic>
  1019ee:	66 90                	xchg   %ax,%ax

001019f0 <iput>:
}

// Caller holds reference to unlocked ip.  Drop reference.
void
iput(struct inode *ip)
{
  1019f0:	55                   	push   %ebp
  1019f1:	89 e5                	mov    %esp,%ebp
  1019f3:	57                   	push   %edi
  1019f4:	56                   	push   %esi
  1019f5:	53                   	push   %ebx
  1019f6:	83 ec 2c             	sub    $0x2c,%esp
  1019f9:	8b 75 08             	mov    0x8(%ebp),%esi
  acquire(&icache.lock);
  1019fc:	c7 04 24 80 9a 10 00 	movl   $0x109a80,(%esp)
  101a03:	e8 88 25 00 00       	call   103f90 <acquire>
  if(ip->ref == 1 && (ip->flags & I_VALID) && ip->nlink == 0){
  101a08:	8b 46 08             	mov    0x8(%esi),%eax
  101a0b:	83 f8 01             	cmp    $0x1,%eax
  101a0e:	0f 85 9e 00 00 00    	jne    101ab2 <iput+0xc2>
  101a14:	8b 56 0c             	mov    0xc(%esi),%edx
  101a17:	f6 c2 02             	test   $0x2,%dl
  101a1a:	0f 84 92 00 00 00    	je     101ab2 <iput+0xc2>
  101a20:	66 83 7e 16 00       	cmpw   $0x0,0x16(%esi)
  101a25:	0f 85 87 00 00 00    	jne    101ab2 <iput+0xc2>
    // inode is no longer used: truncate and free inode.
    if(ip->flags & I_BUSY)
  101a2b:	f6 c2 01             	test   $0x1,%dl
  101a2e:	66 90                	xchg   %ax,%ax
  101a30:	0f 85 ef 00 00 00    	jne    101b25 <iput+0x135>
      panic("iput busy");
    ip->flags |= I_BUSY;
  101a36:	83 ca 01             	or     $0x1,%edx
    release(&icache.lock);
  101a39:	89 f3                	mov    %esi,%ebx
  acquire(&icache.lock);
  if(ip->ref == 1 && (ip->flags & I_VALID) && ip->nlink == 0){
    // inode is no longer used: truncate and free inode.
    if(ip->flags & I_BUSY)
      panic("iput busy");
    ip->flags |= I_BUSY;
  101a3b:	89 56 0c             	mov    %edx,0xc(%esi)
  release(&icache.lock);
}

// Caller holds reference to unlocked ip.  Drop reference.
void
iput(struct inode *ip)
  101a3e:	8d 7e 30             	lea    0x30(%esi),%edi
  if(ip->ref == 1 && (ip->flags & I_VALID) && ip->nlink == 0){
    // inode is no longer used: truncate and free inode.
    if(ip->flags & I_BUSY)
      panic("iput busy");
    ip->flags |= I_BUSY;
    release(&icache.lock);
  101a41:	c7 04 24 80 9a 10 00 	movl   $0x109a80,(%esp)
  101a48:	e8 03 25 00 00       	call   103f50 <release>
  101a4d:	eb 08                	jmp    101a57 <iput+0x67>
  101a4f:	90                   	nop
  uint *a;

  for(i = 0; i < NDIRECT; i++){
    if(ip->addrs[i]){
      bfree(ip->dev, ip->addrs[i]);
      ip->addrs[i] = 0;
  101a50:	83 c3 04             	add    $0x4,%ebx
{
  int i, j;
  struct buf *bp;
  uint *a;

  for(i = 0; i < NDIRECT; i++){
  101a53:	39 fb                	cmp    %edi,%ebx
  101a55:	74 1c                	je     101a73 <iput+0x83>
    if(ip->addrs[i]){
  101a57:	8b 53 1c             	mov    0x1c(%ebx),%edx
  101a5a:	85 d2                	test   %edx,%edx
  101a5c:	74 f2                	je     101a50 <iput+0x60>
      bfree(ip->dev, ip->addrs[i]);
  101a5e:	8b 06                	mov    (%esi),%eax
  101a60:	e8 cb fe ff ff       	call   101930 <bfree>
      ip->addrs[i] = 0;
  101a65:	c7 43 1c 00 00 00 00 	movl   $0x0,0x1c(%ebx)
  101a6c:	83 c3 04             	add    $0x4,%ebx
{
  int i, j;
  struct buf *bp;
  uint *a;

  for(i = 0; i < NDIRECT; i++){
  101a6f:	39 fb                	cmp    %edi,%ebx
  101a71:	75 e4                	jne    101a57 <iput+0x67>
      bfree(ip->dev, ip->addrs[i]);
      ip->addrs[i] = 0;
    }
  }
  
  if(ip->addrs[INDIRECT]){
  101a73:	8b 46 4c             	mov    0x4c(%esi),%eax
  101a76:	85 c0                	test   %eax,%eax
  101a78:	75 56                	jne    101ad0 <iput+0xe0>
    }
    brelse(bp);
    ip->addrs[INDIRECT] = 0;
  }

  ip->size = 0;
  101a7a:	c7 46 18 00 00 00 00 	movl   $0x0,0x18(%esi)
  iupdate(ip);
  101a81:	89 34 24             	mov    %esi,(%esp)
  101a84:	e8 e7 fa ff ff       	call   101570 <iupdate>
    if(ip->flags & I_BUSY)
      panic("iput busy");
    ip->flags |= I_BUSY;
    release(&icache.lock);
    itrunc(ip);
    ip->type = 0;
  101a89:	66 c7 46 10 00 00    	movw   $0x0,0x10(%esi)
    iupdate(ip);
  101a8f:	89 34 24             	mov    %esi,(%esp)
  101a92:	e8 d9 fa ff ff       	call   101570 <iupdate>
    acquire(&icache.lock);
  101a97:	c7 04 24 80 9a 10 00 	movl   $0x109a80,(%esp)
  101a9e:	e8 ed 24 00 00       	call   103f90 <acquire>
    ip->flags &= ~I_BUSY;
  101aa3:	83 66 0c fe          	andl   $0xfffffffe,0xc(%esi)
    wakeup(ip);
  101aa7:	89 34 24             	mov    %esi,(%esp)
  101aaa:	e8 51 18 00 00       	call   103300 <wakeup>
  101aaf:	8b 46 08             	mov    0x8(%esi),%eax
  }
  ip->ref--;
  101ab2:	83 e8 01             	sub    $0x1,%eax
  101ab5:	89 46 08             	mov    %eax,0x8(%esi)
  release(&icache.lock);
  101ab8:	c7 45 08 80 9a 10 00 	movl   $0x109a80,0x8(%ebp)
}
  101abf:	83 c4 2c             	add    $0x2c,%esp
  101ac2:	5b                   	pop    %ebx
  101ac3:	5e                   	pop    %esi
  101ac4:	5f                   	pop    %edi
  101ac5:	5d                   	pop    %ebp
    acquire(&icache.lock);
    ip->flags &= ~I_BUSY;
    wakeup(ip);
  }
  ip->ref--;
  release(&icache.lock);
  101ac6:	e9 85 24 00 00       	jmp    103f50 <release>
  101acb:	90                   	nop
  101acc:	8d 74 26 00          	lea    0x0(%esi,%eiz,1),%esi
      ip->addrs[i] = 0;
    }
  }
  
  if(ip->addrs[INDIRECT]){
    bp = bread(ip->dev, ip->addrs[INDIRECT]);
  101ad0:	89 44 24 04          	mov    %eax,0x4(%esp)
  101ad4:	8b 06                	mov    (%esi),%eax
    a = (uint*)bp->data;
  101ad6:	31 db                	xor    %ebx,%ebx
      ip->addrs[i] = 0;
    }
  }
  
  if(ip->addrs[INDIRECT]){
    bp = bread(ip->dev, ip->addrs[INDIRECT]);
  101ad8:	89 04 24             	mov    %eax,(%esp)
  101adb:	e8 d0 e5 ff ff       	call   1000b0 <bread>
    a = (uint*)bp->data;
  101ae0:	89 c7                	mov    %eax,%edi
      ip->addrs[i] = 0;
    }
  }
  
  if(ip->addrs[INDIRECT]){
    bp = bread(ip->dev, ip->addrs[INDIRECT]);
  101ae2:	89 45 e4             	mov    %eax,-0x1c(%ebp)
    a = (uint*)bp->data;
  101ae5:	83 c7 18             	add    $0x18,%edi
  101ae8:	31 c0                	xor    %eax,%eax
  101aea:	eb 11                	jmp    101afd <iput+0x10d>
  101aec:	8d 74 26 00          	lea    0x0(%esi,%eiz,1),%esi
    for(j = 0; j < NINDIRECT; j++){
  101af0:	83 c3 01             	add    $0x1,%ebx
  101af3:	81 fb 80 00 00 00    	cmp    $0x80,%ebx
  101af9:	89 d8                	mov    %ebx,%eax
  101afb:	74 10                	je     101b0d <iput+0x11d>
      if(a[j])
  101afd:	8b 14 87             	mov    (%edi,%eax,4),%edx
  101b00:	85 d2                	test   %edx,%edx
  101b02:	74 ec                	je     101af0 <iput+0x100>
        bfree(ip->dev, a[j]);
  101b04:	8b 06                	mov    (%esi),%eax
  101b06:	e8 25 fe ff ff       	call   101930 <bfree>
  101b0b:	eb e3                	jmp    101af0 <iput+0x100>
    }
    brelse(bp);
  101b0d:	8b 45 e4             	mov    -0x1c(%ebp),%eax
  101b10:	89 04 24             	mov    %eax,(%esp)
  101b13:	e8 e8 e4 ff ff       	call   100000 <brelse>
    ip->addrs[INDIRECT] = 0;
  101b18:	c7 46 4c 00 00 00 00 	movl   $0x0,0x4c(%esi)
  101b1f:	90                   	nop
  101b20:	e9 55 ff ff ff       	jmp    101a7a <iput+0x8a>
{
  acquire(&icache.lock);
  if(ip->ref == 1 && (ip->flags & I_VALID) && ip->nlink == 0){
    // inode is no longer used: truncate and free inode.
    if(ip->flags & I_BUSY)
      panic("iput busy");
  101b25:	c7 04 24 8a 60 10 00 	movl   $0x10608a,(%esp)
  101b2c:	e8 ef ed ff ff       	call   100920 <panic>
  101b31:	eb 0d                	jmp    101b40 <dirlink>
  101b33:	90                   	nop
  101b34:	90                   	nop
  101b35:	90                   	nop
  101b36:	90                   	nop
  101b37:	90                   	nop
  101b38:	90                   	nop
  101b39:	90                   	nop
  101b3a:	90                   	nop
  101b3b:	90                   	nop
  101b3c:	90                   	nop
  101b3d:	90                   	nop
  101b3e:	90                   	nop
  101b3f:	90                   	nop

00101b40 <dirlink>:
}

// Write a new directory entry (name, ino) into the directory dp.
int
dirlink(struct inode *dp, char *name, uint ino)
{
  101b40:	55                   	push   %ebp
  101b41:	89 e5                	mov    %esp,%ebp
  101b43:	57                   	push   %edi
  101b44:	56                   	push   %esi
  101b45:	53                   	push   %ebx
  101b46:	83 ec 2c             	sub    $0x2c,%esp
  101b49:	8b 75 08             	mov    0x8(%ebp),%esi
  int off;
  struct dirent de;
  struct inode *ip;

  // Check that name is not present.
  if((ip = dirlookup(dp, name, 0)) != 0){
  101b4c:	8b 45 0c             	mov    0xc(%ebp),%eax
  101b4f:	c7 44 24 08 00 00 00 	movl   $0x0,0x8(%esp)
  101b56:	00 
  101b57:	89 34 24             	mov    %esi,(%esp)
  101b5a:	89 44 24 04          	mov    %eax,0x4(%esp)
  101b5e:	e8 fd fb ff ff       	call   101760 <dirlookup>
  101b63:	85 c0                	test   %eax,%eax
  101b65:	0f 85 89 00 00 00    	jne    101bf4 <dirlink+0xb4>
    iput(ip);
    return -1;
  }

  // Look for an empty dirent.
  for(off = 0; off < dp->size; off += sizeof(de)){
  101b6b:	8b 7e 18             	mov    0x18(%esi),%edi
  101b6e:	85 ff                	test   %edi,%edi
  101b70:	0f 84 8d 00 00 00    	je     101c03 <dirlink+0xc3>
  struct inode *ip;

  // Check that name is not present.
  if((ip = dirlookup(dp, name, 0)) != 0){
    iput(ip);
    return -1;
  101b76:	8d 7d d8             	lea    -0x28(%ebp),%edi
  101b79:	31 db                	xor    %ebx,%ebx
  101b7b:	eb 0b                	jmp    101b88 <dirlink+0x48>
  101b7d:	8d 76 00             	lea    0x0(%esi),%esi
  }

  // Look for an empty dirent.
  for(off = 0; off < dp->size; off += sizeof(de)){
  101b80:	83 c3 10             	add    $0x10,%ebx
  101b83:	39 5e 18             	cmp    %ebx,0x18(%esi)
  101b86:	76 24                	jbe    101bac <dirlink+0x6c>
    if(readi(dp, (char*)&de, off, sizeof(de)) != sizeof(de))
  101b88:	c7 44 24 0c 10 00 00 	movl   $0x10,0xc(%esp)
  101b8f:	00 
  101b90:	89 5c 24 08          	mov    %ebx,0x8(%esp)
  101b94:	89 7c 24 04          	mov    %edi,0x4(%esp)
  101b98:	89 34 24             	mov    %esi,(%esp)
  101b9b:	e8 c0 f8 ff ff       	call   101460 <readi>
  101ba0:	83 f8 10             	cmp    $0x10,%eax
  101ba3:	75 65                	jne    101c0a <dirlink+0xca>
      panic("dirlink read");
    if(de.inum == 0)
  101ba5:	66 83 7d d8 00       	cmpw   $0x0,-0x28(%ebp)
  101baa:	75 d4                	jne    101b80 <dirlink+0x40>
      break;
  }

  strncpy(de.name, name, DIRSIZ);
  101bac:	8b 45 0c             	mov    0xc(%ebp),%eax
  101baf:	c7 44 24 08 0e 00 00 	movl   $0xe,0x8(%esp)
  101bb6:	00 
  101bb7:	89 44 24 04          	mov    %eax,0x4(%esp)
  101bbb:	8d 45 da             	lea    -0x26(%ebp),%eax
  101bbe:	89 04 24             	mov    %eax,(%esp)
  101bc1:	e8 8a 25 00 00       	call   104150 <strncpy>
  de.inum = ino;
  101bc6:	8b 45 10             	mov    0x10(%ebp),%eax
  if(writei(dp, (char*)&de, off, sizeof(de)) != sizeof(de))
  101bc9:	c7 44 24 0c 10 00 00 	movl   $0x10,0xc(%esp)
  101bd0:	00 
  101bd1:	89 5c 24 08          	mov    %ebx,0x8(%esp)
  101bd5:	89 7c 24 04          	mov    %edi,0x4(%esp)
    if(de.inum == 0)
      break;
  }

  strncpy(de.name, name, DIRSIZ);
  de.inum = ino;
  101bd9:	66 89 45 d8          	mov    %ax,-0x28(%ebp)
  if(writei(dp, (char*)&de, off, sizeof(de)) != sizeof(de))
  101bdd:	89 34 24             	mov    %esi,(%esp)
  101be0:	e8 1b fa ff ff       	call   101600 <writei>
  101be5:	83 f8 10             	cmp    $0x10,%eax
  101be8:	75 2c                	jne    101c16 <dirlink+0xd6>
    panic("dirlink");
  101bea:	31 c0                	xor    %eax,%eax
  
  return 0;
}
  101bec:	83 c4 2c             	add    $0x2c,%esp
  101bef:	5b                   	pop    %ebx
  101bf0:	5e                   	pop    %esi
  101bf1:	5f                   	pop    %edi
  101bf2:	5d                   	pop    %ebp
  101bf3:	c3                   	ret    
  struct dirent de;
  struct inode *ip;

  // Check that name is not present.
  if((ip = dirlookup(dp, name, 0)) != 0){
    iput(ip);
  101bf4:	89 04 24             	mov    %eax,(%esp)
  101bf7:	e8 f4 fd ff ff       	call   1019f0 <iput>
  101bfc:	b8 ff ff ff ff       	mov    $0xffffffff,%eax
    return -1;
  101c01:	eb e9                	jmp    101bec <dirlink+0xac>
  }

  // Look for an empty dirent.
  for(off = 0; off < dp->size; off += sizeof(de)){
  101c03:	8d 7d d8             	lea    -0x28(%ebp),%edi
  101c06:	31 db                	xor    %ebx,%ebx
  101c08:	eb a2                	jmp    101bac <dirlink+0x6c>
    if(readi(dp, (char*)&de, off, sizeof(de)) != sizeof(de))
      panic("dirlink read");
  101c0a:	c7 04 24 94 60 10 00 	movl   $0x106094,(%esp)
  101c11:	e8 0a ed ff ff       	call   100920 <panic>
  }

  strncpy(de.name, name, DIRSIZ);
  de.inum = ino;
  if(writei(dp, (char*)&de, off, sizeof(de)) != sizeof(de))
    panic("dirlink");
  101c16:	c7 04 24 a1 60 10 00 	movl   $0x1060a1,(%esp)
  101c1d:	e8 fe ec ff ff       	call   100920 <panic>
  101c22:	8d b4 26 00 00 00 00 	lea    0x0(%esi,%eiz,1),%esi
  101c29:	8d bc 27 00 00 00 00 	lea    0x0(%edi,%eiz,1),%edi

00101c30 <iunlock>:
}

// Unlock the given inode.
void
iunlock(struct inode *ip)
{
  101c30:	55                   	push   %ebp
  101c31:	89 e5                	mov    %esp,%ebp
  101c33:	53                   	push   %ebx
  101c34:	83 ec 14             	sub    $0x14,%esp
  101c37:	8b 5d 08             	mov    0x8(%ebp),%ebx
  if(ip == 0 || !(ip->flags & I_BUSY) || ip->ref < 1)
  101c3a:	85 db                	test   %ebx,%ebx
  101c3c:	74 36                	je     101c74 <iunlock+0x44>
  101c3e:	f6 43 0c 01          	testb  $0x1,0xc(%ebx)
  101c42:	74 30                	je     101c74 <iunlock+0x44>
  101c44:	8b 43 08             	mov    0x8(%ebx),%eax
  101c47:	85 c0                	test   %eax,%eax
  101c49:	7e 29                	jle    101c74 <iunlock+0x44>
    panic("iunlock");

  acquire(&icache.lock);
  101c4b:	c7 04 24 80 9a 10 00 	movl   $0x109a80,(%esp)
  101c52:	e8 39 23 00 00       	call   103f90 <acquire>
  ip->flags &= ~I_BUSY;
  101c57:	83 63 0c fe          	andl   $0xfffffffe,0xc(%ebx)
  wakeup(ip);
  101c5b:	89 1c 24             	mov    %ebx,(%esp)
  101c5e:	e8 9d 16 00 00       	call   103300 <wakeup>
  release(&icache.lock);
  101c63:	c7 45 08 80 9a 10 00 	movl   $0x109a80,0x8(%ebp)
}
  101c6a:	83 c4 14             	add    $0x14,%esp
  101c6d:	5b                   	pop    %ebx
  101c6e:	5d                   	pop    %ebp
    panic("iunlock");

  acquire(&icache.lock);
  ip->flags &= ~I_BUSY;
  wakeup(ip);
  release(&icache.lock);
  101c6f:	e9 dc 22 00 00       	jmp    103f50 <release>
// Unlock the given inode.
void
iunlock(struct inode *ip)
{
  if(ip == 0 || !(ip->flags & I_BUSY) || ip->ref < 1)
    panic("iunlock");
  101c74:	c7 04 24 a9 60 10 00 	movl   $0x1060a9,(%esp)
  101c7b:	e8 a0 ec ff ff       	call   100920 <panic>

00101c80 <iunlockput>:
}

// Common idiom: unlock, then put.
void
iunlockput(struct inode *ip)
{
  101c80:	55                   	push   %ebp
  101c81:	89 e5                	mov    %esp,%ebp
  101c83:	53                   	push   %ebx
  101c84:	83 ec 14             	sub    $0x14,%esp
  101c87:	8b 5d 08             	mov    0x8(%ebp),%ebx
  iunlock(ip);
  101c8a:	89 1c 24             	mov    %ebx,(%esp)
  101c8d:	e8 9e ff ff ff       	call   101c30 <iunlock>
  iput(ip);
  101c92:	89 5d 08             	mov    %ebx,0x8(%ebp)
}
  101c95:	83 c4 14             	add    $0x14,%esp
  101c98:	5b                   	pop    %ebx
  101c99:	5d                   	pop    %ebp
// Common idiom: unlock, then put.
void
iunlockput(struct inode *ip)
{
  iunlock(ip);
  iput(ip);
  101c9a:	e9 51 fd ff ff       	jmp    1019f0 <iput>
  101c9f:	90                   	nop

00101ca0 <ilock>:
}

// Lock the given inode.
void
ilock(struct inode *ip)
{
  101ca0:	55                   	push   %ebp
  101ca1:	89 e5                	mov    %esp,%ebp
  101ca3:	56                   	push   %esi
  101ca4:	53                   	push   %ebx
  101ca5:	83 ec 10             	sub    $0x10,%esp
  101ca8:	8b 5d 08             	mov    0x8(%ebp),%ebx
  struct buf *bp;
  struct dinode *dip;

  if(ip == 0 || ip->ref < 1)
  101cab:	85 db                	test   %ebx,%ebx
  101cad:	0f 84 e5 00 00 00    	je     101d98 <ilock+0xf8>
  101cb3:	8b 53 08             	mov    0x8(%ebx),%edx
  101cb6:	85 d2                	test   %edx,%edx
  101cb8:	0f 8e da 00 00 00    	jle    101d98 <ilock+0xf8>
    panic("ilock");

  acquire(&icache.lock);
  101cbe:	c7 04 24 80 9a 10 00 	movl   $0x109a80,(%esp)
  101cc5:	e8 c6 22 00 00       	call   103f90 <acquire>
  while(ip->flags & I_BUSY)
  101cca:	8b 43 0c             	mov    0xc(%ebx),%eax
  101ccd:	a8 01                	test   $0x1,%al
  101ccf:	74 1e                	je     101cef <ilock+0x4f>
  101cd1:	8d b4 26 00 00 00 00 	lea    0x0(%esi,%eiz,1),%esi
    sleep(ip, &icache.lock);
  101cd8:	c7 44 24 04 80 9a 10 	movl   $0x109a80,0x4(%esp)
  101cdf:	00 
  101ce0:	89 1c 24             	mov    %ebx,(%esp)
  101ce3:	e8 f8 18 00 00       	call   1035e0 <sleep>

  if(ip == 0 || ip->ref < 1)
    panic("ilock");

  acquire(&icache.lock);
  while(ip->flags & I_BUSY)
  101ce8:	8b 43 0c             	mov    0xc(%ebx),%eax
  101ceb:	a8 01                	test   $0x1,%al
  101ced:	75 e9                	jne    101cd8 <ilock+0x38>
    sleep(ip, &icache.lock);
  ip->flags |= I_BUSY;
  101cef:	83 c8 01             	or     $0x1,%eax
  101cf2:	89 43 0c             	mov    %eax,0xc(%ebx)
  release(&icache.lock);
  101cf5:	c7 04 24 80 9a 10 00 	movl   $0x109a80,(%esp)
  101cfc:	e8 4f 22 00 00       	call   103f50 <release>

  if(!(ip->flags & I_VALID)){
  101d01:	f6 43 0c 02          	testb  $0x2,0xc(%ebx)
  101d05:	74 09                	je     101d10 <ilock+0x70>
    brelse(bp);
    ip->flags |= I_VALID;
    if(ip->type == 0)
      panic("ilock: no type");
  }
}
  101d07:	83 c4 10             	add    $0x10,%esp
  101d0a:	5b                   	pop    %ebx
  101d0b:	5e                   	pop    %esi
  101d0c:	5d                   	pop    %ebp
  101d0d:	c3                   	ret    
  101d0e:	66 90                	xchg   %ax,%ax
    sleep(ip, &icache.lock);
  ip->flags |= I_BUSY;
  release(&icache.lock);

  if(!(ip->flags & I_VALID)){
    bp = bread(ip->dev, IBLOCK(ip->inum));
  101d10:	8b 43 04             	mov    0x4(%ebx),%eax
  101d13:	c1 e8 03             	shr    $0x3,%eax
  101d16:	83 c0 02             	add    $0x2,%eax
  101d19:	89 44 24 04          	mov    %eax,0x4(%esp)
  101d1d:	8b 03                	mov    (%ebx),%eax
  101d1f:	89 04 24             	mov    %eax,(%esp)
  101d22:	e8 89 e3 ff ff       	call   1000b0 <bread>
  101d27:	89 c6                	mov    %eax,%esi
    dip = (struct dinode*)bp->data + ip->inum%IPB;
  101d29:	8b 43 04             	mov    0x4(%ebx),%eax
  101d2c:	83 e0 07             	and    $0x7,%eax
  101d2f:	c1 e0 06             	shl    $0x6,%eax
  101d32:	8d 44 06 18          	lea    0x18(%esi,%eax,1),%eax
    ip->type = dip->type;
  101d36:	0f b7 10             	movzwl (%eax),%edx
  101d39:	66 89 53 10          	mov    %dx,0x10(%ebx)
    ip->major = dip->major;
  101d3d:	0f b7 50 02          	movzwl 0x2(%eax),%edx
  101d41:	66 89 53 12          	mov    %dx,0x12(%ebx)
    ip->minor = dip->minor;
  101d45:	0f b7 50 04          	movzwl 0x4(%eax),%edx
  101d49:	66 89 53 14          	mov    %dx,0x14(%ebx)
    ip->nlink = dip->nlink;
  101d4d:	0f b7 50 06          	movzwl 0x6(%eax),%edx
  101d51:	66 89 53 16          	mov    %dx,0x16(%ebx)
    ip->size = dip->size;
  101d55:	8b 50 08             	mov    0x8(%eax),%edx
    memmove(ip->addrs, dip->addrs, sizeof(ip->addrs));
  101d58:	83 c0 0c             	add    $0xc,%eax
    dip = (struct dinode*)bp->data + ip->inum%IPB;
    ip->type = dip->type;
    ip->major = dip->major;
    ip->minor = dip->minor;
    ip->nlink = dip->nlink;
    ip->size = dip->size;
  101d5b:	89 53 18             	mov    %edx,0x18(%ebx)
    memmove(ip->addrs, dip->addrs, sizeof(ip->addrs));
  101d5e:	89 44 24 04          	mov    %eax,0x4(%esp)
  101d62:	8d 43 1c             	lea    0x1c(%ebx),%eax
  101d65:	c7 44 24 08 34 00 00 	movl   $0x34,0x8(%esp)
  101d6c:	00 
  101d6d:	89 04 24             	mov    %eax,(%esp)
  101d70:	e8 1b 23 00 00       	call   104090 <memmove>
    brelse(bp);
  101d75:	89 34 24             	mov    %esi,(%esp)
  101d78:	e8 83 e2 ff ff       	call   100000 <brelse>
    ip->flags |= I_VALID;
  101d7d:	83 4b 0c 02          	orl    $0x2,0xc(%ebx)
    if(ip->type == 0)
  101d81:	66 83 7b 10 00       	cmpw   $0x0,0x10(%ebx)
  101d86:	0f 85 7b ff ff ff    	jne    101d07 <ilock+0x67>
      panic("ilock: no type");
  101d8c:	c7 04 24 b7 60 10 00 	movl   $0x1060b7,(%esp)
  101d93:	e8 88 eb ff ff       	call   100920 <panic>
{
  struct buf *bp;
  struct dinode *dip;

  if(ip == 0 || ip->ref < 1)
    panic("ilock");
  101d98:	c7 04 24 b1 60 10 00 	movl   $0x1060b1,(%esp)
  101d9f:	e8 7c eb ff ff       	call   100920 <panic>
  101da4:	8d b6 00 00 00 00    	lea    0x0(%esi),%esi
  101daa:	8d bf 00 00 00 00    	lea    0x0(%edi),%edi

00101db0 <_namei>:
// Look up and return the inode for a path name.
// If parent != 0, return the inode for the parent and copy the final
// path element into name, which must have room for DIRSIZ bytes.
static struct inode*
_namei(char *path, int parent, char *name)
{
  101db0:	55                   	push   %ebp
  101db1:	89 e5                	mov    %esp,%ebp
  101db3:	57                   	push   %edi
  101db4:	56                   	push   %esi
  101db5:	53                   	push   %ebx
  101db6:	89 c3                	mov    %eax,%ebx
  101db8:	83 ec 2c             	sub    $0x2c,%esp
  101dbb:	89 55 e0             	mov    %edx,-0x20(%ebp)
  101dbe:	89 4d e4             	mov    %ecx,-0x1c(%ebp)
  struct inode *ip, *next;

  if(*path == '/')
  101dc1:	80 38 2f             	cmpb   $0x2f,(%eax)
  101dc4:	0f 84 3b 01 00 00    	je     101f05 <_namei+0x155>
    ip = iget(ROOTDEV, 1);
  else
    ip = idup(cp->cwd);
  101dca:	e8 b1 15 00 00       	call   103380 <curproc>
  101dcf:	8b 40 60             	mov    0x60(%eax),%eax
  101dd2:	89 04 24             	mov    %eax,(%esp)
  101dd5:	e8 96 f3 ff ff       	call   101170 <idup>
  101dda:	89 c7                	mov    %eax,%edi
  101ddc:	eb 05                	jmp    101de3 <_namei+0x33>
  101dde:	66 90                	xchg   %ax,%ax
{
  char *s;
  int len;

  while(*path == '/')
    path++;
  101de0:	83 c3 01             	add    $0x1,%ebx
skipelem(char *path, char *name)
{
  char *s;
  int len;

  while(*path == '/')
  101de3:	0f b6 03             	movzbl (%ebx),%eax
  101de6:	3c 2f                	cmp    $0x2f,%al
  101de8:	74 f6                	je     101de0 <_namei+0x30>
    path++;
  if(*path == 0)
  101dea:	84 c0                	test   %al,%al
  101dec:	75 1a                	jne    101e08 <_namei+0x58>
      return 0;
    }
    iunlockput(ip);
    ip = next;
  }
  if(parent){
  101dee:	8b 4d e0             	mov    -0x20(%ebp),%ecx
  101df1:	85 c9                	test   %ecx,%ecx
  101df3:	0f 85 34 01 00 00    	jne    101f2d <_namei+0x17d>
    iput(ip);
    return 0;
  }
  return ip;
}
  101df9:	83 c4 2c             	add    $0x2c,%esp
  101dfc:	89 f8                	mov    %edi,%eax
  101dfe:	5b                   	pop    %ebx
  101dff:	5e                   	pop    %esi
  101e00:	5f                   	pop    %edi
  101e01:	5d                   	pop    %ebp
  101e02:	c3                   	ret    
  101e03:	90                   	nop
  101e04:	8d 74 26 00          	lea    0x0(%esi,%eiz,1),%esi
  while(*path == '/')
    path++;
  if(*path == 0)
    return 0;
  s = path;
  while(*path != '/' && *path != 0)
  101e08:	3c 2f                	cmp    $0x2f,%al
  101e0a:	0f 84 db 00 00 00    	je     101eeb <_namei+0x13b>
  101e10:	89 de                	mov    %ebx,%esi
    path++;
  101e12:	83 c6 01             	add    $0x1,%esi
  while(*path == '/')
    path++;
  if(*path == 0)
    return 0;
  s = path;
  while(*path != '/' && *path != 0)
  101e15:	0f b6 06             	movzbl (%esi),%eax
  101e18:	84 c0                	test   %al,%al
  101e1a:	0f 85 90 00 00 00    	jne    101eb0 <_namei+0x100>
  101e20:	89 f2                	mov    %esi,%edx
  101e22:	29 da                	sub    %ebx,%edx
    path++;
  len = path - s;
  if(len >= DIRSIZ)
  101e24:	83 fa 0d             	cmp    $0xd,%edx
  101e27:	0f 8e 99 00 00 00    	jle    101ec6 <_namei+0x116>
  101e2d:	8d 76 00             	lea    0x0(%esi),%esi
    memmove(name, s, DIRSIZ);
  101e30:	c7 44 24 08 0e 00 00 	movl   $0xe,0x8(%esp)
  101e37:	00 
  101e38:	89 5c 24 04          	mov    %ebx,0x4(%esp)
  101e3c:	8b 45 e4             	mov    -0x1c(%ebp),%eax
  101e3f:	89 04 24             	mov    %eax,(%esp)
  101e42:	e8 49 22 00 00       	call   104090 <memmove>
  101e47:	eb 0a                	jmp    101e53 <_namei+0xa3>
  101e49:	8d b4 26 00 00 00 00 	lea    0x0(%esi,%eiz,1),%esi
  else {
    memmove(name, s, len);
    name[len] = 0;
  }
  while(*path == '/')
    path++;
  101e50:	83 c6 01             	add    $0x1,%esi
    memmove(name, s, DIRSIZ);
  else {
    memmove(name, s, len);
    name[len] = 0;
  }
  while(*path == '/')
  101e53:	80 3e 2f             	cmpb   $0x2f,(%esi)
  101e56:	74 f8                	je     101e50 <_namei+0xa0>
  if(*path == '/')
    ip = iget(ROOTDEV, 1);
  else
    ip = idup(cp->cwd);

  while((path = skipelem(path, name)) != 0){
  101e58:	85 f6                	test   %esi,%esi
  101e5a:	74 92                	je     101dee <_namei+0x3e>
    ilock(ip);
  101e5c:	89 3c 24             	mov    %edi,(%esp)
  101e5f:	e8 3c fe ff ff       	call   101ca0 <ilock>
    if(ip->type != T_DIR){
  101e64:	66 83 7f 10 01       	cmpw   $0x1,0x10(%edi)
  101e69:	0f 85 82 00 00 00    	jne    101ef1 <_namei+0x141>
      iunlockput(ip);
      return 0;
    }
    if(parent && *path == '\0'){
  101e6f:	8b 5d e0             	mov    -0x20(%ebp),%ebx
  101e72:	85 db                	test   %ebx,%ebx
  101e74:	74 09                	je     101e7f <_namei+0xcf>
  101e76:	80 3e 00             	cmpb   $0x0,(%esi)
  101e79:	0f 84 9c 00 00 00    	je     101f1b <_namei+0x16b>
      // Stop one level early.
      iunlock(ip);
      return ip;
    }
    if((next = dirlookup(ip, name, 0)) == 0){
  101e7f:	c7 44 24 08 00 00 00 	movl   $0x0,0x8(%esp)
  101e86:	00 
  101e87:	8b 45 e4             	mov    -0x1c(%ebp),%eax
  101e8a:	89 3c 24             	mov    %edi,(%esp)
  101e8d:	89 44 24 04          	mov    %eax,0x4(%esp)
  101e91:	e8 ca f8 ff ff       	call   101760 <dirlookup>
  101e96:	85 c0                	test   %eax,%eax
  101e98:	89 c3                	mov    %eax,%ebx
  101e9a:	74 55                	je     101ef1 <_namei+0x141>
      iunlockput(ip);
      return 0;
    }
    iunlockput(ip);
  101e9c:	89 3c 24             	mov    %edi,(%esp)
  101e9f:	89 df                	mov    %ebx,%edi
  101ea1:	89 f3                	mov    %esi,%ebx
  101ea3:	e8 d8 fd ff ff       	call   101c80 <iunlockput>
  101ea8:	e9 36 ff ff ff       	jmp    101de3 <_namei+0x33>
  101ead:	8d 76 00             	lea    0x0(%esi),%esi
  while(*path == '/')
    path++;
  if(*path == 0)
    return 0;
  s = path;
  while(*path != '/' && *path != 0)
  101eb0:	3c 2f                	cmp    $0x2f,%al
  101eb2:	0f 85 5a ff ff ff    	jne    101e12 <_namei+0x62>
  101eb8:	89 f2                	mov    %esi,%edx
  101eba:	29 da                	sub    %ebx,%edx
    path++;
  len = path - s;
  if(len >= DIRSIZ)
  101ebc:	83 fa 0d             	cmp    $0xd,%edx
  101ebf:	90                   	nop
  101ec0:	0f 8f 6a ff ff ff    	jg     101e30 <_namei+0x80>
    memmove(name, s, DIRSIZ);
  else {
    memmove(name, s, len);
  101ec6:	89 54 24 08          	mov    %edx,0x8(%esp)
  101eca:	89 5c 24 04          	mov    %ebx,0x4(%esp)
  101ece:	8b 45 e4             	mov    -0x1c(%ebp),%eax
  101ed1:	89 04 24             	mov    %eax,(%esp)
  101ed4:	89 55 dc             	mov    %edx,-0x24(%ebp)
  101ed7:	e8 b4 21 00 00       	call   104090 <memmove>
    name[len] = 0;
  101edc:	8b 55 dc             	mov    -0x24(%ebp),%edx
  101edf:	8b 45 e4             	mov    -0x1c(%ebp),%eax
  101ee2:	c6 04 10 00          	movb   $0x0,(%eax,%edx,1)
  101ee6:	e9 68 ff ff ff       	jmp    101e53 <_namei+0xa3>
  }
  while(*path == '/')
  101eeb:	89 de                	mov    %ebx,%esi
  101eed:	31 d2                	xor    %edx,%edx
  101eef:	eb d5                	jmp    101ec6 <_namei+0x116>
      // Stop one level early.
      iunlock(ip);
      return ip;
    }
    if((next = dirlookup(ip, name, 0)) == 0){
      iunlockput(ip);
  101ef1:	89 3c 24             	mov    %edi,(%esp)
  101ef4:	31 ff                	xor    %edi,%edi
  101ef6:	e8 85 fd ff ff       	call   101c80 <iunlockput>
  if(parent){
    iput(ip);
    return 0;
  }
  return ip;
}
  101efb:	83 c4 2c             	add    $0x2c,%esp
  101efe:	89 f8                	mov    %edi,%eax
  101f00:	5b                   	pop    %ebx
  101f01:	5e                   	pop    %esi
  101f02:	5f                   	pop    %edi
  101f03:	5d                   	pop    %ebp
  101f04:	c3                   	ret    
_namei(char *path, int parent, char *name)
{
  struct inode *ip, *next;

  if(*path == '/')
    ip = iget(ROOTDEV, 1);
  101f05:	ba 01 00 00 00       	mov    $0x1,%edx
  101f0a:	b8 01 00 00 00       	mov    $0x1,%eax
  101f0f:	e8 8c f2 ff ff       	call   1011a0 <iget>
  101f14:	89 c7                	mov    %eax,%edi
  101f16:	e9 c8 fe ff ff       	jmp    101de3 <_namei+0x33>
      iunlockput(ip);
      return 0;
    }
    if(parent && *path == '\0'){
      // Stop one level early.
      iunlock(ip);
  101f1b:	89 3c 24             	mov    %edi,(%esp)
  101f1e:	e8 0d fd ff ff       	call   101c30 <iunlock>
  if(parent){
    iput(ip);
    return 0;
  }
  return ip;
}
  101f23:	83 c4 2c             	add    $0x2c,%esp
  101f26:	89 f8                	mov    %edi,%eax
  101f28:	5b                   	pop    %ebx
  101f29:	5e                   	pop    %esi
  101f2a:	5f                   	pop    %edi
  101f2b:	5d                   	pop    %ebp
  101f2c:	c3                   	ret    
    }
    iunlockput(ip);
    ip = next;
  }
  if(parent){
    iput(ip);
  101f2d:	89 3c 24             	mov    %edi,(%esp)
  101f30:	31 ff                	xor    %edi,%edi
  101f32:	e8 b9 fa ff ff       	call   1019f0 <iput>
    return 0;
  101f37:	e9 bd fe ff ff       	jmp    101df9 <_namei+0x49>
  101f3c:	8d 74 26 00          	lea    0x0(%esi,%eiz,1),%esi

00101f40 <nameiparent>:
  return _namei(path, 0, name);
}

struct inode*
nameiparent(char *path, char *name)
{
  101f40:	55                   	push   %ebp
  return _namei(path, 1, name);
  101f41:	ba 01 00 00 00       	mov    $0x1,%edx
  return _namei(path, 0, name);
}

struct inode*
nameiparent(char *path, char *name)
{
  101f46:	89 e5                	mov    %esp,%ebp
  101f48:	83 ec 08             	sub    $0x8,%esp
  return _namei(path, 1, name);
  101f4b:	8b 4d 0c             	mov    0xc(%ebp),%ecx
  101f4e:	8b 45 08             	mov    0x8(%ebp),%eax
}
  101f51:	c9                   	leave  
}

struct inode*
nameiparent(char *path, char *name)
{
  return _namei(path, 1, name);
  101f52:	e9 59 fe ff ff       	jmp    101db0 <_namei>
  101f57:	89 f6                	mov    %esi,%esi
  101f59:	8d bc 27 00 00 00 00 	lea    0x0(%edi,%eiz,1),%edi

00101f60 <namei>:
  return ip;
}

struct inode*
namei(char *path)
{
  101f60:	55                   	push   %ebp
  char name[DIRSIZ];
  return _namei(path, 0, name);
  101f61:	31 d2                	xor    %edx,%edx
  return ip;
}

struct inode*
namei(char *path)
{
  101f63:	89 e5                	mov    %esp,%ebp
  101f65:	83 ec 18             	sub    $0x18,%esp
  char name[DIRSIZ];
  return _namei(path, 0, name);
  101f68:	8b 45 08             	mov    0x8(%ebp),%eax
  101f6b:	8d 4d ea             	lea    -0x16(%ebp),%ecx
  101f6e:	e8 3d fe ff ff       	call   101db0 <_namei>
}
  101f73:	c9                   	leave  
  101f74:	c3                   	ret    
  101f75:	8d 74 26 00          	lea    0x0(%esi,%eiz,1),%esi
  101f79:	8d bc 27 00 00 00 00 	lea    0x0(%edi,%eiz,1),%edi

00101f80 <iinit>:
  struct inode inode[NINODE];
} icache;

void
iinit(void)
{
  101f80:	55                   	push   %ebp
  101f81:	89 e5                	mov    %esp,%ebp
  101f83:	83 ec 18             	sub    $0x18,%esp
  initlock(&icache.lock, "icache.lock");
  101f86:	c7 44 24 04 c6 60 10 	movl   $0x1060c6,0x4(%esp)
  101f8d:	00 
  101f8e:	c7 04 24 80 9a 10 00 	movl   $0x109a80,(%esp)
  101f95:	e8 36 1e 00 00       	call   103dd0 <initlock>
}
  101f9a:	c9                   	leave  
  101f9b:	c3                   	ret    
  101f9c:	90                   	nop
  101f9d:	90                   	nop
  101f9e:	90                   	nop
  101f9f:	90                   	nop

00101fa0 <getticks>:
#include "defs.h"
//#include "user.h"

int ticks;

int getticks(){
  101fa0:	55                   	push   %ebp
  int i = ticks;
  return i;
}
  101fa1:	a1 54 aa 10 00       	mov    0x10aa54,%eax
#include "defs.h"
//#include "user.h"

int ticks;

int getticks(){
  101fa6:	89 e5                	mov    %esp,%ebp
  int i = ticks;
  return i;
}
  101fa8:	5d                   	pop    %ebp
  101fa9:	c3                   	ret    
  101faa:	90                   	nop
  101fab:	90                   	nop
  101fac:	90                   	nop
  101fad:	90                   	nop
  101fae:	90                   	nop
  101faf:	90                   	nop

00101fb0 <ide_start_request>:
}

// Start the request for b.  Caller must hold ide_lock.
static void
ide_start_request(struct buf *b)
{
  101fb0:	55                   	push   %ebp
  101fb1:	89 c1                	mov    %eax,%ecx
  101fb3:	89 e5                	mov    %esp,%ebp
  101fb5:	56                   	push   %esi
  101fb6:	83 ec 14             	sub    $0x14,%esp
  if(b == 0)
  101fb9:	85 c0                	test   %eax,%eax
  101fbb:	0f 84 89 00 00 00    	je     10204a <ide_start_request+0x9a>
static inline uchar
inb(ushort port)
{
  uchar data;

  asm volatile("in %1,%0" : "=a" (data) : "d" (port));
  101fc1:	ba f7 01 00 00       	mov    $0x1f7,%edx
  101fc6:	66 90                	xchg   %ax,%ax
  101fc8:	ec                   	in     (%dx),%al
static int
ide_wait_ready(int check_error)
{
  int r;

  while(((r = inb(0x1f7)) & IDE_BSY) || !(r & IDE_DRDY))
  101fc9:	0f b6 c0             	movzbl %al,%eax
  101fcc:	84 c0                	test   %al,%al
  101fce:	78 f8                	js     101fc8 <ide_start_request+0x18>
  101fd0:	a8 40                	test   $0x40,%al
  101fd2:	74 f4                	je     101fc8 <ide_start_request+0x18>
}

static inline void
outb(ushort port, uchar data)
{
  asm volatile("out %0,%1" : : "a" (data), "d" (port));
  101fd4:	ba f6 03 00 00       	mov    $0x3f6,%edx
  101fd9:	31 c0                	xor    %eax,%eax
  101fdb:	ee                   	out    %al,(%dx)
  101fdc:	ba f2 01 00 00       	mov    $0x1f2,%edx
  101fe1:	b8 01 00 00 00       	mov    $0x1,%eax
  101fe6:	ee                   	out    %al,(%dx)
    panic("ide_start_request");

  ide_wait_ready(0);
  outb(0x3f6, 0);  // generate interrupt
  outb(0x1f2, 1);  // number of sectors
  outb(0x1f3, b->sector & 0xff);
  101fe7:	8b 71 08             	mov    0x8(%ecx),%esi
  101fea:	b2 f3                	mov    $0xf3,%dl
  101fec:	89 f0                	mov    %esi,%eax
  101fee:	ee                   	out    %al,(%dx)
  101fef:	89 f0                	mov    %esi,%eax
  101ff1:	b2 f4                	mov    $0xf4,%dl
  101ff3:	c1 e8 08             	shr    $0x8,%eax
  101ff6:	ee                   	out    %al,(%dx)
  101ff7:	89 f0                	mov    %esi,%eax
  101ff9:	b2 f5                	mov    $0xf5,%dl
  101ffb:	c1 e8 10             	shr    $0x10,%eax
  101ffe:	ee                   	out    %al,(%dx)
  101fff:	8b 41 04             	mov    0x4(%ecx),%eax
  102002:	c1 ee 18             	shr    $0x18,%esi
  102005:	b2 f6                	mov    $0xf6,%dl
  102007:	83 e6 0f             	and    $0xf,%esi
  10200a:	83 e0 01             	and    $0x1,%eax
  10200d:	c1 e0 04             	shl    $0x4,%eax
  102010:	09 f0                	or     %esi,%eax
  102012:	83 c8 e0             	or     $0xffffffe0,%eax
  102015:	ee                   	out    %al,(%dx)
  outb(0x1f4, (b->sector >> 8) & 0xff);
  outb(0x1f5, (b->sector >> 16) & 0xff);
  outb(0x1f6, 0xe0 | ((b->dev&1)<<4) | ((b->sector>>24)&0x0f));
  if(b->flags & B_DIRTY){
  102016:	f6 01 04             	testb  $0x4,(%ecx)
  102019:	75 11                	jne    10202c <ide_start_request+0x7c>
  10201b:	ba f7 01 00 00       	mov    $0x1f7,%edx
  102020:	b8 20 00 00 00       	mov    $0x20,%eax
  102025:	ee                   	out    %al,(%dx)
    outb(0x1f7, IDE_CMD_WRITE);
    outsl(0x1f0, b->data, 512/4);
  } else {
    outb(0x1f7, IDE_CMD_READ);
  }
}
  102026:	83 c4 14             	add    $0x14,%esp
  102029:	5e                   	pop    %esi
  10202a:	5d                   	pop    %ebp
  10202b:	c3                   	ret    
  10202c:	b2 f7                	mov    $0xf7,%dl
  10202e:	b8 30 00 00 00       	mov    $0x30,%eax
  102033:	ee                   	out    %al,(%dx)
}

static inline void
outsl(int port, const void *addr, int cnt)
{
  asm volatile("cld\n\trepne\n\toutsl"    :
  102034:	ba f0 01 00 00       	mov    $0x1f0,%edx
  102039:	8d 71 18             	lea    0x18(%ecx),%esi
  10203c:	b9 80 00 00 00       	mov    $0x80,%ecx
  102041:	fc                   	cld    
  102042:	f2 6f                	repnz outsl %ds:(%esi),(%dx)
  102044:	83 c4 14             	add    $0x14,%esp
  102047:	5e                   	pop    %esi
  102048:	5d                   	pop    %ebp
  102049:	c3                   	ret    
// Start the request for b.  Caller must hold ide_lock.
static void
ide_start_request(struct buf *b)
{
  if(b == 0)
    panic("ide_start_request");
  10204a:	c7 04 24 d2 60 10 00 	movl   $0x1060d2,(%esp)
  102051:	e8 ca e8 ff ff       	call   100920 <panic>
  102056:	8d 76 00             	lea    0x0(%esi),%esi
  102059:	8d bc 27 00 00 00 00 	lea    0x0(%edi,%eiz,1),%edi

00102060 <ide_rw>:
// Sync buf with disk. 
// If B_DIRTY is set, write buf to disk, clear B_DIRTY, set B_VALID.
// Else if B_VALID is not set, read buf from disk, set B_VALID.
void
ide_rw(struct buf *b)
{
  102060:	55                   	push   %ebp
  102061:	89 e5                	mov    %esp,%ebp
  102063:	53                   	push   %ebx
  102064:	83 ec 14             	sub    $0x14,%esp
  102067:	8b 5d 08             	mov    0x8(%ebp),%ebx
  struct buf **pp;

  if(!(b->flags & B_BUSY))
  10206a:	8b 03                	mov    (%ebx),%eax
  10206c:	a8 01                	test   $0x1,%al
  10206e:	0f 84 90 00 00 00    	je     102104 <ide_rw+0xa4>
    panic("ide_rw: buf not busy");
  if((b->flags & (B_VALID|B_DIRTY)) == B_VALID)
  102074:	83 e0 06             	and    $0x6,%eax
  102077:	83 f8 02             	cmp    $0x2,%eax
  10207a:	0f 84 9c 00 00 00    	je     10211c <ide_rw+0xbc>
    panic("ide_rw: nothing to do");
  if(b->dev != 0 && !disk_1_present)
  102080:	8b 53 04             	mov    0x4(%ebx),%edx
  102083:	85 d2                	test   %edx,%edx
  102085:	74 0d                	je     102094 <ide_rw+0x34>
  102087:	a1 38 78 10 00       	mov    0x107838,%eax
  10208c:	85 c0                	test   %eax,%eax
  10208e:	0f 84 7c 00 00 00    	je     102110 <ide_rw+0xb0>
    panic("ide disk 1 not present");

  acquire(&ide_lock);
  102094:	c7 04 24 00 78 10 00 	movl   $0x107800,(%esp)
  10209b:	e8 f0 1e 00 00       	call   103f90 <acquire>

  // Append b to ide_queue.
  b->qnext = 0;
  1020a0:	a1 34 78 10 00       	mov    0x107834,%eax
  for(pp=&ide_queue; *pp; pp=&(*pp)->qnext)
  1020a5:	ba 34 78 10 00       	mov    $0x107834,%edx
    panic("ide disk 1 not present");

  acquire(&ide_lock);

  // Append b to ide_queue.
  b->qnext = 0;
  1020aa:	c7 43 14 00 00 00 00 	movl   $0x0,0x14(%ebx)
  for(pp=&ide_queue; *pp; pp=&(*pp)->qnext)
  1020b1:	85 c0                	test   %eax,%eax
  1020b3:	74 0d                	je     1020c2 <ide_rw+0x62>
  1020b5:	8d 76 00             	lea    0x0(%esi),%esi
  1020b8:	8d 50 14             	lea    0x14(%eax),%edx
  1020bb:	8b 40 14             	mov    0x14(%eax),%eax
  1020be:	85 c0                	test   %eax,%eax
  1020c0:	75 f6                	jne    1020b8 <ide_rw+0x58>
    ;
  *pp = b;
  1020c2:	89 1a                	mov    %ebx,(%edx)
  
  // Start disk if necessary.
  if(ide_queue == b)
  1020c4:	39 1d 34 78 10 00    	cmp    %ebx,0x107834
  1020ca:	75 14                	jne    1020e0 <ide_rw+0x80>
  1020cc:	eb 2d                	jmp    1020fb <ide_rw+0x9b>
  1020ce:	66 90                	xchg   %ax,%ax
    ide_start_request(b);
  
  // Wait for request to finish.
  // Assuming will not sleep too long: ignore cp->killed.
  while((b->flags & (B_VALID|B_DIRTY)) != B_VALID)
    sleep(b, &ide_lock);
  1020d0:	c7 44 24 04 00 78 10 	movl   $0x107800,0x4(%esp)
  1020d7:	00 
  1020d8:	89 1c 24             	mov    %ebx,(%esp)
  1020db:	e8 00 15 00 00       	call   1035e0 <sleep>
  if(ide_queue == b)
    ide_start_request(b);
  
  // Wait for request to finish.
  // Assuming will not sleep too long: ignore cp->killed.
  while((b->flags & (B_VALID|B_DIRTY)) != B_VALID)
  1020e0:	8b 03                	mov    (%ebx),%eax
  1020e2:	83 e0 06             	and    $0x6,%eax
  1020e5:	83 f8 02             	cmp    $0x2,%eax
  1020e8:	75 e6                	jne    1020d0 <ide_rw+0x70>
    sleep(b, &ide_lock);

  release(&ide_lock);
  1020ea:	c7 45 08 00 78 10 00 	movl   $0x107800,0x8(%ebp)
}
  1020f1:	83 c4 14             	add    $0x14,%esp
  1020f4:	5b                   	pop    %ebx
  1020f5:	5d                   	pop    %ebp
  // Wait for request to finish.
  // Assuming will not sleep too long: ignore cp->killed.
  while((b->flags & (B_VALID|B_DIRTY)) != B_VALID)
    sleep(b, &ide_lock);

  release(&ide_lock);
  1020f6:	e9 55 1e 00 00       	jmp    103f50 <release>
    ;
  *pp = b;
  
  // Start disk if necessary.
  if(ide_queue == b)
    ide_start_request(b);
  1020fb:	89 d8                	mov    %ebx,%eax
  1020fd:	e8 ae fe ff ff       	call   101fb0 <ide_start_request>
  102102:	eb dc                	jmp    1020e0 <ide_rw+0x80>
ide_rw(struct buf *b)
{
  struct buf **pp;

  if(!(b->flags & B_BUSY))
    panic("ide_rw: buf not busy");
  102104:	c7 04 24 e4 60 10 00 	movl   $0x1060e4,(%esp)
  10210b:	e8 10 e8 ff ff       	call   100920 <panic>
  if((b->flags & (B_VALID|B_DIRTY)) == B_VALID)
    panic("ide_rw: nothing to do");
  if(b->dev != 0 && !disk_1_present)
    panic("ide disk 1 not present");
  102110:	c7 04 24 0f 61 10 00 	movl   $0x10610f,(%esp)
  102117:	e8 04 e8 ff ff       	call   100920 <panic>
  struct buf **pp;

  if(!(b->flags & B_BUSY))
    panic("ide_rw: buf not busy");
  if((b->flags & (B_VALID|B_DIRTY)) == B_VALID)
    panic("ide_rw: nothing to do");
  10211c:	c7 04 24 f9 60 10 00 	movl   $0x1060f9,(%esp)
  102123:	e8 f8 e7 ff ff       	call   100920 <panic>
  102128:	90                   	nop
  102129:	8d b4 26 00 00 00 00 	lea    0x0(%esi,%eiz,1),%esi

00102130 <ide_intr>:
}

// Interrupt handler.
void
ide_intr(void)
{
  102130:	55                   	push   %ebp
  102131:	89 e5                	mov    %esp,%ebp
  102133:	57                   	push   %edi
  102134:	53                   	push   %ebx
  102135:	83 ec 10             	sub    $0x10,%esp
  struct buf *b;

  acquire(&ide_lock);
  102138:	c7 04 24 00 78 10 00 	movl   $0x107800,(%esp)
  10213f:	e8 4c 1e 00 00       	call   103f90 <acquire>
  if((b = ide_queue) == 0){
  102144:	8b 1d 34 78 10 00    	mov    0x107834,%ebx
  10214a:	85 db                	test   %ebx,%ebx
  10214c:	74 28                	je     102176 <ide_intr+0x46>
    release(&ide_lock);
    return;
  }

  // Read data if needed.
  if(!(b->flags & B_DIRTY) && ide_wait_ready(1) >= 0)
  10214e:	8b 0b                	mov    (%ebx),%ecx
  102150:	f6 c1 04             	test   $0x4,%cl
  102153:	74 3b                	je     102190 <ide_intr+0x60>
    insl(0x1f0, b->data, 512/4);
  
  // Wake process waiting for this buf.
  b->flags |= B_VALID;
  b->flags &= ~B_DIRTY;
  102155:	83 c9 02             	or     $0x2,%ecx
  102158:	83 e1 fb             	and    $0xfffffffb,%ecx
  10215b:	89 0b                	mov    %ecx,(%ebx)
  wakeup(b);
  10215d:	89 1c 24             	mov    %ebx,(%esp)
  102160:	e8 9b 11 00 00       	call   103300 <wakeup>
  
  // Start disk on next buf in queue.
  if((ide_queue = b->qnext) != 0)
  102165:	8b 43 14             	mov    0x14(%ebx),%eax
  102168:	85 c0                	test   %eax,%eax
  10216a:	a3 34 78 10 00       	mov    %eax,0x107834
  10216f:	74 05                	je     102176 <ide_intr+0x46>
    ide_start_request(ide_queue);
  102171:	e8 3a fe ff ff       	call   101fb0 <ide_start_request>

  release(&ide_lock);
  102176:	c7 04 24 00 78 10 00 	movl   $0x107800,(%esp)
  10217d:	e8 ce 1d 00 00       	call   103f50 <release>
}
  102182:	83 c4 10             	add    $0x10,%esp
  102185:	5b                   	pop    %ebx
  102186:	5f                   	pop    %edi
  102187:	5d                   	pop    %ebp
  102188:	c3                   	ret    
  102189:	8d b4 26 00 00 00 00 	lea    0x0(%esi,%eiz,1),%esi
static inline uchar
inb(ushort port)
{
  uchar data;

  asm volatile("in %1,%0" : "=a" (data) : "d" (port));
  102190:	ba f7 01 00 00       	mov    $0x1f7,%edx
  102195:	8d 76 00             	lea    0x0(%esi),%esi
  102198:	ec                   	in     (%dx),%al
static int
ide_wait_ready(int check_error)
{
  int r;

  while(((r = inb(0x1f7)) & IDE_BSY) || !(r & IDE_DRDY))
  102199:	0f b6 c0             	movzbl %al,%eax
  10219c:	84 c0                	test   %al,%al
  10219e:	78 f8                	js     102198 <ide_intr+0x68>
  1021a0:	a8 40                	test   $0x40,%al
  1021a2:	74 f4                	je     102198 <ide_intr+0x68>
    ;
  if(check_error && (r & (IDE_DF|IDE_ERR)) != 0)
  1021a4:	a8 21                	test   $0x21,%al
  1021a6:	75 ad                	jne    102155 <ide_intr+0x25>
}

static inline void
insl(int port, void *addr, int cnt)
{
  asm volatile("cld\n\trepne\n\tinsl"     :
  1021a8:	8d 7b 18             	lea    0x18(%ebx),%edi
  1021ab:	b9 80 00 00 00       	mov    $0x80,%ecx
  1021b0:	ba f0 01 00 00       	mov    $0x1f0,%edx
  1021b5:	fc                   	cld    
  1021b6:	f2 6d                	repnz insl (%dx),%es:(%edi)
  1021b8:	8b 0b                	mov    (%ebx),%ecx
  1021ba:	eb 99                	jmp    102155 <ide_intr+0x25>
  1021bc:	8d 74 26 00          	lea    0x0(%esi,%eiz,1),%esi

001021c0 <ide_init>:
  return 0;
}

void
ide_init(void)
{
  1021c0:	55                   	push   %ebp
  1021c1:	89 e5                	mov    %esp,%ebp
  1021c3:	83 ec 18             	sub    $0x18,%esp
  int i;

  initlock(&ide_lock, "ide");
  1021c6:	c7 44 24 04 26 61 10 	movl   $0x106126,0x4(%esp)
  1021cd:	00 
  1021ce:	c7 04 24 00 78 10 00 	movl   $0x107800,(%esp)
  1021d5:	e8 f6 1b 00 00       	call   103dd0 <initlock>
  pic_enable(IRQ_IDE);
  1021da:	c7 04 24 0e 00 00 00 	movl   $0xe,(%esp)
  1021e1:	e8 7a 0b 00 00       	call   102d60 <pic_enable>
  ioapic_enable(IRQ_IDE, ncpu - 1);
  1021e6:	a1 20 b1 10 00       	mov    0x10b120,%eax
  1021eb:	c7 04 24 0e 00 00 00 	movl   $0xe,(%esp)
  1021f2:	83 e8 01             	sub    $0x1,%eax
  1021f5:	89 44 24 04          	mov    %eax,0x4(%esp)
  1021f9:	e8 52 00 00 00       	call   102250 <ioapic_enable>
static inline uchar
inb(ushort port)
{
  uchar data;

  asm volatile("in %1,%0" : "=a" (data) : "d" (port));
  1021fe:	ba f7 01 00 00       	mov    $0x1f7,%edx
  102203:	90                   	nop
  102204:	8d 74 26 00          	lea    0x0(%esi,%eiz,1),%esi
  102208:	ec                   	in     (%dx),%al
static int
ide_wait_ready(int check_error)
{
  int r;

  while(((r = inb(0x1f7)) & IDE_BSY) || !(r & IDE_DRDY))
  102209:	0f b6 c0             	movzbl %al,%eax
  10220c:	84 c0                	test   %al,%al
  10220e:	78 f8                	js     102208 <ide_init+0x48>
  102210:	a8 40                	test   $0x40,%al
  102212:	74 f4                	je     102208 <ide_init+0x48>
}

static inline void
outb(ushort port, uchar data)
{
  asm volatile("out %0,%1" : : "a" (data), "d" (port));
  102214:	ba f6 01 00 00       	mov    $0x1f6,%edx
  102219:	b8 f0 ff ff ff       	mov    $0xfffffff0,%eax
  10221e:	ee                   	out    %al,(%dx)
  10221f:	31 c9                	xor    %ecx,%ecx
static inline uchar
inb(ushort port)
{
  uchar data;

  asm volatile("in %1,%0" : "=a" (data) : "d" (port));
  102221:	b2 f7                	mov    $0xf7,%dl
  102223:	eb 0e                	jmp    102233 <ide_init+0x73>
  102225:	8d 76 00             	lea    0x0(%esi),%esi
  ioapic_enable(IRQ_IDE, ncpu - 1);
  ide_wait_ready(0);
  
  // Check if disk 1 is present
  outb(0x1f6, 0xe0 | (1<<4));
  for(i=0; i<1000; i++){
  102228:	83 c1 01             	add    $0x1,%ecx
  10222b:	81 f9 e8 03 00 00    	cmp    $0x3e8,%ecx
  102231:	74 0f                	je     102242 <ide_init+0x82>
  102233:	ec                   	in     (%dx),%al
    if(inb(0x1f7) != 0){
  102234:	84 c0                	test   %al,%al
  102236:	74 f0                	je     102228 <ide_init+0x68>
      disk_1_present = 1;
  102238:	c7 05 38 78 10 00 01 	movl   $0x1,0x107838
  10223f:	00 00 00 
}

static inline void
outb(ushort port, uchar data)
{
  asm volatile("out %0,%1" : : "a" (data), "d" (port));
  102242:	ba f6 01 00 00       	mov    $0x1f6,%edx
  102247:	b8 e0 ff ff ff       	mov    $0xffffffe0,%eax
  10224c:	ee                   	out    %al,(%dx)
    }
  }
  
  // Switch back to disk 0.
  outb(0x1f6, 0xe0 | (0<<4));
}
  10224d:	c9                   	leave  
  10224e:	c3                   	ret    
  10224f:	90                   	nop

00102250 <ioapic_enable>:
}

void
ioapic_enable(int irq, int cpunum)
{
  if(!ismp)
  102250:	8b 15 a0 aa 10 00    	mov    0x10aaa0,%edx
  }
}

void
ioapic_enable(int irq, int cpunum)
{
  102256:	55                   	push   %ebp
  102257:	89 e5                	mov    %esp,%ebp
  102259:	8b 45 08             	mov    0x8(%ebp),%eax
  if(!ismp)
  10225c:	85 d2                	test   %edx,%edx
  10225e:	74 1f                	je     10227f <ioapic_enable+0x2f>
    return;

  // Mark interrupt edge-triggered, active high,
  // enabled, and routed to the given cpunum,
  // which happens to be that cpu's APIC ID.
  ioapic_write(REG_TABLE+2*irq, IRQ_OFFSET + irq);
  102260:	8d 48 20             	lea    0x20(%eax),%ecx
  102263:	8d 54 00 10          	lea    0x10(%eax,%eax,1),%edx
}

static void
ioapic_write(int reg, uint data)
{
  ioapic->reg = reg;
  102267:	a1 58 aa 10 00       	mov    0x10aa58,%eax
  10226c:	89 10                	mov    %edx,(%eax)
  10226e:	83 c2 01             	add    $0x1,%edx
  ioapic->data = data;
  102271:	89 48 10             	mov    %ecx,0x10(%eax)

  // Mark interrupt edge-triggered, active high,
  // enabled, and routed to the given cpunum,
  // which happens to be that cpu's APIC ID.
  ioapic_write(REG_TABLE+2*irq, IRQ_OFFSET + irq);
  ioapic_write(REG_TABLE+2*irq+1, cpunum << 24);
  102274:	8b 4d 0c             	mov    0xc(%ebp),%ecx
}

static void
ioapic_write(int reg, uint data)
{
  ioapic->reg = reg;
  102277:	89 10                	mov    %edx,(%eax)

  // Mark interrupt edge-triggered, active high,
  // enabled, and routed to the given cpunum,
  // which happens to be that cpu's APIC ID.
  ioapic_write(REG_TABLE+2*irq, IRQ_OFFSET + irq);
  ioapic_write(REG_TABLE+2*irq+1, cpunum << 24);
  102279:	c1 e1 18             	shl    $0x18,%ecx

static void
ioapic_write(int reg, uint data)
{
  ioapic->reg = reg;
  ioapic->data = data;
  10227c:	89 48 10             	mov    %ecx,0x10(%eax)
  // Mark interrupt edge-triggered, active high,
  // enabled, and routed to the given cpunum,
  // which happens to be that cpu's APIC ID.
  ioapic_write(REG_TABLE+2*irq, IRQ_OFFSET + irq);
  ioapic_write(REG_TABLE+2*irq+1, cpunum << 24);
}
  10227f:	5d                   	pop    %ebp
  102280:	c3                   	ret    
  102281:	eb 0d                	jmp    102290 <ioapic_init>
  102283:	90                   	nop
  102284:	90                   	nop
  102285:	90                   	nop
  102286:	90                   	nop
  102287:	90                   	nop
  102288:	90                   	nop
  102289:	90                   	nop
  10228a:	90                   	nop
  10228b:	90                   	nop
  10228c:	90                   	nop
  10228d:	90                   	nop
  10228e:	90                   	nop
  10228f:	90                   	nop

00102290 <ioapic_init>:
  ioapic->data = data;
}

void
ioapic_init(void)
{
  102290:	55                   	push   %ebp
  102291:	89 e5                	mov    %esp,%ebp
  102293:	56                   	push   %esi
  102294:	53                   	push   %ebx
  102295:	83 ec 10             	sub    $0x10,%esp
  int i, id, maxintr;

  if(!ismp)
  102298:	8b 0d a0 aa 10 00    	mov    0x10aaa0,%ecx
  10229e:	85 c9                	test   %ecx,%ecx
  1022a0:	0f 84 86 00 00 00    	je     10232c <ioapic_init+0x9c>
};

static uint
ioapic_read(int reg)
{
  ioapic->reg = reg;
  1022a6:	c7 05 00 00 c0 fe 01 	movl   $0x1,0xfec00000
  1022ad:	00 00 00 
  return ioapic->data;
  1022b0:	8b 35 10 00 c0 fe    	mov    0xfec00010,%esi
    return;

  ioapic = (volatile struct ioapic*)IOAPIC;
  maxintr = (ioapic_read(REG_VER) >> 16) & 0xFF;
  id = ioapic_read(REG_ID) >> 24;
  if(id != ioapic_id)
  1022b6:	b8 00 00 c0 fe       	mov    $0xfec00000,%eax
};

static uint
ioapic_read(int reg)
{
  ioapic->reg = reg;
  1022bb:	c7 05 00 00 c0 fe 00 	movl   $0x0,0xfec00000
  1022c2:	00 00 00 
  return ioapic->data;
  1022c5:	8b 15 10 00 c0 fe    	mov    0xfec00010,%edx
    return;

  ioapic = (volatile struct ioapic*)IOAPIC;
  maxintr = (ioapic_read(REG_VER) >> 16) & 0xFF;
  id = ioapic_read(REG_ID) >> 24;
  if(id != ioapic_id)
  1022cb:	0f b6 0d a4 aa 10 00 	movzbl 0x10aaa4,%ecx
  int i, id, maxintr;

  if(!ismp)
    return;

  ioapic = (volatile struct ioapic*)IOAPIC;
  1022d2:	c7 05 58 aa 10 00 00 	movl   $0xfec00000,0x10aa58
  1022d9:	00 c0 fe 
  maxintr = (ioapic_read(REG_VER) >> 16) & 0xFF;
  1022dc:	c1 ee 10             	shr    $0x10,%esi
  id = ioapic_read(REG_ID) >> 24;
  if(id != ioapic_id)
  1022df:	c1 ea 18             	shr    $0x18,%edx

  if(!ismp)
    return;

  ioapic = (volatile struct ioapic*)IOAPIC;
  maxintr = (ioapic_read(REG_VER) >> 16) & 0xFF;
  1022e2:	81 e6 ff 00 00 00    	and    $0xff,%esi
  id = ioapic_read(REG_ID) >> 24;
  if(id != ioapic_id)
  1022e8:	39 d1                	cmp    %edx,%ecx
  1022ea:	74 11                	je     1022fd <ioapic_init+0x6d>
    cprintf("ioapic_init: id isn't equal to ioapic_id; not a MP\n");
  1022ec:	c7 04 24 2c 61 10 00 	movl   $0x10612c,(%esp)
  1022f3:	e8 88 e4 ff ff       	call   100780 <cprintf>
  1022f8:	a1 58 aa 10 00       	mov    0x10aa58,%eax
  1022fd:	b9 10 00 00 00       	mov    $0x10,%ecx
  102302:	31 d2                	xor    %edx,%edx
  102304:	8d 74 26 00          	lea    0x0(%esi,%eiz,1),%esi

  // Mark all interrupts edge-triggered, active high, disabled,
  // and not routed to any CPUs.
  for(i = 0; i <= maxintr; i++){
    ioapic_write(REG_TABLE+2*i, INT_DISABLED | (IRQ_OFFSET + i));
  102308:	8d 5a 20             	lea    0x20(%edx),%ebx
  if(id != ioapic_id)
    cprintf("ioapic_init: id isn't equal to ioapic_id; not a MP\n");

  // Mark all interrupts edge-triggered, active high, disabled,
  // and not routed to any CPUs.
  for(i = 0; i <= maxintr; i++){
  10230b:	83 c2 01             	add    $0x1,%edx
    ioapic_write(REG_TABLE+2*i, INT_DISABLED | (IRQ_OFFSET + i));
  10230e:	81 cb 00 00 01 00    	or     $0x10000,%ebx
}

static void
ioapic_write(int reg, uint data)
{
  ioapic->reg = reg;
  102314:	89 08                	mov    %ecx,(%eax)
  ioapic->data = data;
  102316:	89 58 10             	mov    %ebx,0x10(%eax)
  102319:	8d 59 01             	lea    0x1(%ecx),%ebx
  if(id != ioapic_id)
    cprintf("ioapic_init: id isn't equal to ioapic_id; not a MP\n");

  // Mark all interrupts edge-triggered, active high, disabled,
  // and not routed to any CPUs.
  for(i = 0; i <= maxintr; i++){
  10231c:	83 c1 02             	add    $0x2,%ecx
  10231f:	39 d6                	cmp    %edx,%esi
}

static void
ioapic_write(int reg, uint data)
{
  ioapic->reg = reg;
  102321:	89 18                	mov    %ebx,(%eax)
  ioapic->data = data;
  102323:	c7 40 10 00 00 00 00 	movl   $0x0,0x10(%eax)
  if(id != ioapic_id)
    cprintf("ioapic_init: id isn't equal to ioapic_id; not a MP\n");

  // Mark all interrupts edge-triggered, active high, disabled,
  // and not routed to any CPUs.
  for(i = 0; i <= maxintr; i++){
  10232a:	7d dc                	jge    102308 <ioapic_init+0x78>
    ioapic_write(REG_TABLE+2*i, INT_DISABLED | (IRQ_OFFSET + i));
    ioapic_write(REG_TABLE+2*i+1, 0);
  }
}
  10232c:	83 c4 10             	add    $0x10,%esp
  10232f:	5b                   	pop    %ebx
  102330:	5e                   	pop    %esi
  102331:	5d                   	pop    %ebp
  102332:	c3                   	ret    
  102333:	90                   	nop
  102334:	90                   	nop
  102335:	90                   	nop
  102336:	90                   	nop
  102337:	90                   	nop
  102338:	90                   	nop
  102339:	90                   	nop
  10233a:	90                   	nop
  10233b:	90                   	nop
  10233c:	90                   	nop
  10233d:	90                   	nop
  10233e:	90                   	nop
  10233f:	90                   	nop

00102340 <kalloc>:
// Allocate n bytes of physical memory.
// Returns a kernel-segment pointer.
// Returns 0 if the memory cannot be allocated.
char*
kalloc(int n)
{
  102340:	55                   	push   %ebp
  102341:	89 e5                	mov    %esp,%ebp
  102343:	56                   	push   %esi
  102344:	53                   	push   %ebx
  102345:	83 ec 10             	sub    $0x10,%esp
  102348:	8b 75 08             	mov    0x8(%ebp),%esi
  char *p;
  struct run *r, **rp;

  if(n % PAGE || n <= 0)
  10234b:	f7 c6 ff 0f 00 00    	test   $0xfff,%esi
  102351:	74 0d                	je     102360 <kalloc+0x20>
    panic("kalloc");
  102353:	c7 04 24 60 61 10 00 	movl   $0x106160,(%esp)
  10235a:	e8 c1 e5 ff ff       	call   100920 <panic>
  10235f:	90                   	nop
kalloc(int n)
{
  char *p;
  struct run *r, **rp;

  if(n % PAGE || n <= 0)
  102360:	85 f6                	test   %esi,%esi
  102362:	7e ef                	jle    102353 <kalloc+0x13>
    panic("kalloc");

  acquire(&kalloc_lock);
  102364:	c7 04 24 60 aa 10 00 	movl   $0x10aa60,(%esp)
  10236b:	e8 20 1c 00 00       	call   103f90 <acquire>
  102370:	8b 1d 94 aa 10 00    	mov    0x10aa94,%ebx
  for(rp=&freelist; (r=*rp) != 0; rp=&r->next){
  102376:	85 db                	test   %ebx,%ebx
  102378:	74 3e                	je     1023b8 <kalloc+0x78>
    if(r->len == n){
  10237a:	8b 43 04             	mov    0x4(%ebx),%eax
  10237d:	ba 94 aa 10 00       	mov    $0x10aa94,%edx
  102382:	39 f0                	cmp    %esi,%eax
  102384:	75 11                	jne    102397 <kalloc+0x57>
  102386:	eb 58                	jmp    1023e0 <kalloc+0xa0>

  if(n % PAGE || n <= 0)
    panic("kalloc");

  acquire(&kalloc_lock);
  for(rp=&freelist; (r=*rp) != 0; rp=&r->next){
  102388:	89 da                	mov    %ebx,%edx
  10238a:	8b 1b                	mov    (%ebx),%ebx
  10238c:	85 db                	test   %ebx,%ebx
  10238e:	74 28                	je     1023b8 <kalloc+0x78>
    if(r->len == n){
  102390:	8b 43 04             	mov    0x4(%ebx),%eax
  102393:	39 f0                	cmp    %esi,%eax
  102395:	74 49                	je     1023e0 <kalloc+0xa0>
      *rp = r->next;
      release(&kalloc_lock);
      return (char*)r;
    }
    if(r->len > n){
  102397:	39 c6                	cmp    %eax,%esi
  102399:	7d ed                	jge    102388 <kalloc+0x48>
      r->len -= n;
  10239b:	29 f0                	sub    %esi,%eax
  10239d:	89 43 04             	mov    %eax,0x4(%ebx)
      p = (char*)r + r->len;
  1023a0:	01 c3                	add    %eax,%ebx
      release(&kalloc_lock);
  1023a2:	c7 04 24 60 aa 10 00 	movl   $0x10aa60,(%esp)
  1023a9:	e8 a2 1b 00 00       	call   103f50 <release>
  }
  release(&kalloc_lock);

  cprintf("kalloc: out of memory\n");
  return 0;
}
  1023ae:	83 c4 10             	add    $0x10,%esp
  1023b1:	89 d8                	mov    %ebx,%eax
  1023b3:	5b                   	pop    %ebx
  1023b4:	5e                   	pop    %esi
  1023b5:	5d                   	pop    %ebp
  1023b6:	c3                   	ret    
  1023b7:	90                   	nop
      return p;
    }
  }
  release(&kalloc_lock);

  cprintf("kalloc: out of memory\n");
  1023b8:	31 db                	xor    %ebx,%ebx
      p = (char*)r + r->len;
      release(&kalloc_lock);
      return p;
    }
  }
  release(&kalloc_lock);
  1023ba:	c7 04 24 60 aa 10 00 	movl   $0x10aa60,(%esp)
  1023c1:	e8 8a 1b 00 00       	call   103f50 <release>

  cprintf("kalloc: out of memory\n");
  1023c6:	c7 04 24 67 61 10 00 	movl   $0x106167,(%esp)
  1023cd:	e8 ae e3 ff ff       	call   100780 <cprintf>
  return 0;
}
  1023d2:	83 c4 10             	add    $0x10,%esp
  1023d5:	89 d8                	mov    %ebx,%eax
  1023d7:	5b                   	pop    %ebx
  1023d8:	5e                   	pop    %esi
  1023d9:	5d                   	pop    %ebp
  1023da:	c3                   	ret    
  1023db:	90                   	nop
  1023dc:	8d 74 26 00          	lea    0x0(%esi,%eiz,1),%esi
    panic("kalloc");

  acquire(&kalloc_lock);
  for(rp=&freelist; (r=*rp) != 0; rp=&r->next){
    if(r->len == n){
      *rp = r->next;
  1023e0:	8b 03                	mov    (%ebx),%eax
  1023e2:	89 02                	mov    %eax,(%edx)
      release(&kalloc_lock);
  1023e4:	c7 04 24 60 aa 10 00 	movl   $0x10aa60,(%esp)
  1023eb:	e8 60 1b 00 00       	call   103f50 <release>
  }
  release(&kalloc_lock);

  cprintf("kalloc: out of memory\n");
  return 0;
}
  1023f0:	83 c4 10             	add    $0x10,%esp
  1023f3:	89 d8                	mov    %ebx,%eax
  1023f5:	5b                   	pop    %ebx
  1023f6:	5e                   	pop    %esi
  1023f7:	5d                   	pop    %ebp
  1023f8:	c3                   	ret    
  1023f9:	8d b4 26 00 00 00 00 	lea    0x0(%esi,%eiz,1),%esi

00102400 <kfree>:
// which normally should have been returned by a
// call to kalloc(len).  (The exception is when
// initializing the allocator; see kinit above.)
void
kfree(char *v, int len)
{
  102400:	55                   	push   %ebp
  102401:	89 e5                	mov    %esp,%ebp
  102403:	57                   	push   %edi
  102404:	56                   	push   %esi
  102405:	53                   	push   %ebx
  102406:	83 ec 2c             	sub    $0x2c,%esp
  102409:	8b 45 0c             	mov    0xc(%ebp),%eax
  10240c:	8b 5d 08             	mov    0x8(%ebp),%ebx
  struct run *r, *rend, **rp, *p, *pend;

  if(len <= 0 || len % PAGE)
  10240f:	85 c0                	test   %eax,%eax
// which normally should have been returned by a
// call to kalloc(len).  (The exception is when
// initializing the allocator; see kinit above.)
void
kfree(char *v, int len)
{
  102411:	89 45 e4             	mov    %eax,-0x1c(%ebp)
  struct run *r, *rend, **rp, *p, *pend;

  if(len <= 0 || len % PAGE)
  102414:	0f 8e e9 00 00 00    	jle    102503 <kfree+0x103>
  10241a:	a9 ff 0f 00 00       	test   $0xfff,%eax
  10241f:	0f 85 de 00 00 00    	jne    102503 <kfree+0x103>
    panic("kfree");

  // Fill with junk to catch dangling refs.
  memset(v, 1, len);
  102425:	8b 55 e4             	mov    -0x1c(%ebp),%edx
  102428:	c7 44 24 04 01 00 00 	movl   $0x1,0x4(%esp)
  10242f:	00 
  102430:	89 1c 24             	mov    %ebx,(%esp)
  102433:	89 54 24 08          	mov    %edx,0x8(%esp)
  102437:	e8 c4 1b 00 00       	call   104000 <memset>

  acquire(&kalloc_lock);
  10243c:	c7 04 24 60 aa 10 00 	movl   $0x10aa60,(%esp)
  102443:	e8 48 1b 00 00       	call   103f90 <acquire>
  p = (struct run*)v;
  102448:	a1 94 aa 10 00       	mov    0x10aa94,%eax
  pend = (struct run*)(v + len);
  for(rp=&freelist; (r=*rp) != 0 && r <= pend; rp=&r->next){
  10244d:	85 c0                	test   %eax,%eax
  10244f:	74 61                	je     1024b2 <kfree+0xb2>
  // Fill with junk to catch dangling refs.
  memset(v, 1, len);

  acquire(&kalloc_lock);
  p = (struct run*)v;
  pend = (struct run*)(v + len);
  102451:	8b 55 e4             	mov    -0x1c(%ebp),%edx
  102454:	8d 0c 13             	lea    (%ebx,%edx,1),%ecx
  for(rp=&freelist; (r=*rp) != 0 && r <= pend; rp=&r->next){
  102457:	39 c1                	cmp    %eax,%ecx
  102459:	72 57                	jb     1024b2 <kfree+0xb2>
    rend = (struct run*)((char*)r + r->len);
  10245b:	8b 70 04             	mov    0x4(%eax),%esi
  10245e:	8d 14 30             	lea    (%eax,%esi,1),%edx
    if(r <= p && p < rend)
  102461:	39 d3                	cmp    %edx,%ebx
  102463:	72 73                	jb     1024d8 <kfree+0xd8>
      panic("freeing free page");
    if(pend == r){  // p next to r: replace r with p
  102465:	39 c1                	cmp    %eax,%ecx
  102467:	0f 84 8f 00 00 00    	je     1024fc <kfree+0xfc>
  10246d:	8d 76 00             	lea    0x0(%esi),%esi
      p->len = len + r->len;
      p->next = r->next;
      *rp = p;
      goto out;
    }
    if(rend == p){  // r next to p: replace p with r
  102470:	39 da                	cmp    %ebx,%edx
  102472:	74 6c                	je     1024e0 <kfree+0xe0>
  memset(v, 1, len);

  acquire(&kalloc_lock);
  p = (struct run*)v;
  pend = (struct run*)(v + len);
  for(rp=&freelist; (r=*rp) != 0 && r <= pend; rp=&r->next){
  102474:	89 c7                	mov    %eax,%edi
  102476:	8b 00                	mov    (%eax),%eax
  102478:	85 c0                	test   %eax,%eax
  10247a:	74 3c                	je     1024b8 <kfree+0xb8>
  10247c:	39 c1                	cmp    %eax,%ecx
  10247e:	72 38                	jb     1024b8 <kfree+0xb8>
    rend = (struct run*)((char*)r + r->len);
  102480:	8b 70 04             	mov    0x4(%eax),%esi
  102483:	8d 14 30             	lea    (%eax,%esi,1),%edx
    if(r <= p && p < rend)
  102486:	39 d3                	cmp    %edx,%ebx
  102488:	73 16                	jae    1024a0 <kfree+0xa0>
  10248a:	39 c3                	cmp    %eax,%ebx
  10248c:	72 12                	jb     1024a0 <kfree+0xa0>
      panic("freeing free page");
  10248e:	c7 04 24 84 61 10 00 	movl   $0x106184,(%esp)
  102495:	e8 86 e4 ff ff       	call   100920 <panic>
  10249a:	8d b6 00 00 00 00    	lea    0x0(%esi),%esi
    if(pend == r){  // p next to r: replace r with p
  1024a0:	39 c1                	cmp    %eax,%ecx
  1024a2:	75 cc                	jne    102470 <kfree+0x70>
      p->len = len + r->len;
      p->next = r->next;
  1024a4:	8b 01                	mov    (%ecx),%eax
  for(rp=&freelist; (r=*rp) != 0 && r <= pend; rp=&r->next){
    rend = (struct run*)((char*)r + r->len);
    if(r <= p && p < rend)
      panic("freeing free page");
    if(pend == r){  // p next to r: replace r with p
      p->len = len + r->len;
  1024a6:	03 75 e4             	add    -0x1c(%ebp),%esi
      p->next = r->next;
  1024a9:	89 03                	mov    %eax,(%ebx)
  for(rp=&freelist; (r=*rp) != 0 && r <= pend; rp=&r->next){
    rend = (struct run*)((char*)r + r->len);
    if(r <= p && p < rend)
      panic("freeing free page");
    if(pend == r){  // p next to r: replace r with p
      p->len = len + r->len;
  1024ab:	89 73 04             	mov    %esi,0x4(%ebx)
      p->next = r->next;
      *rp = p;
  1024ae:	89 1f                	mov    %ebx,(%edi)
      goto out;
  1024b0:	eb 10                	jmp    1024c2 <kfree+0xc2>
  memset(v, 1, len);

  acquire(&kalloc_lock);
  p = (struct run*)v;
  pend = (struct run*)(v + len);
  for(rp=&freelist; (r=*rp) != 0 && r <= pend; rp=&r->next){
  1024b2:	bf 94 aa 10 00       	mov    $0x10aa94,%edi
  1024b7:	90                   	nop
      }
      goto out;
    }
  }
  // Insert p before r in list.
  p->len = len;
  1024b8:	8b 55 e4             	mov    -0x1c(%ebp),%edx
  p->next = r;
  1024bb:	89 03                	mov    %eax,(%ebx)
  *rp = p;
  1024bd:	89 1f                	mov    %ebx,(%edi)
      }
      goto out;
    }
  }
  // Insert p before r in list.
  p->len = len;
  1024bf:	89 53 04             	mov    %edx,0x4(%ebx)
  p->next = r;
  *rp = p;

 out:
  release(&kalloc_lock);
  1024c2:	c7 45 08 60 aa 10 00 	movl   $0x10aa60,0x8(%ebp)
}
  1024c9:	83 c4 2c             	add    $0x2c,%esp
  1024cc:	5b                   	pop    %ebx
  1024cd:	5e                   	pop    %esi
  1024ce:	5f                   	pop    %edi
  1024cf:	5d                   	pop    %ebp
  p->len = len;
  p->next = r;
  *rp = p;

 out:
  release(&kalloc_lock);
  1024d0:	e9 7b 1a 00 00       	jmp    103f50 <release>
  1024d5:	8d 76 00             	lea    0x0(%esi),%esi
  acquire(&kalloc_lock);
  p = (struct run*)v;
  pend = (struct run*)(v + len);
  for(rp=&freelist; (r=*rp) != 0 && r <= pend; rp=&r->next){
    rend = (struct run*)((char*)r + r->len);
    if(r <= p && p < rend)
  1024d8:	39 c3                	cmp    %eax,%ebx
  1024da:	73 b2                	jae    10248e <kfree+0x8e>
  1024dc:	eb 87                	jmp    102465 <kfree+0x65>
  1024de:	66 90                	xchg   %ax,%ax
      *rp = p;
      goto out;
    }
    if(rend == p){  // r next to p: replace p with r
      r->len += len;
      if(r->next && r->next == pend){  // r now next to r->next?
  1024e0:	8b 10                	mov    (%eax),%edx
      p->next = r->next;
      *rp = p;
      goto out;
    }
    if(rend == p){  // r next to p: replace p with r
      r->len += len;
  1024e2:	03 75 e4             	add    -0x1c(%ebp),%esi
      if(r->next && r->next == pend){  // r now next to r->next?
  1024e5:	85 d2                	test   %edx,%edx
      p->next = r->next;
      *rp = p;
      goto out;
    }
    if(rend == p){  // r next to p: replace p with r
      r->len += len;
  1024e7:	89 70 04             	mov    %esi,0x4(%eax)
      if(r->next && r->next == pend){  // r now next to r->next?
  1024ea:	74 d6                	je     1024c2 <kfree+0xc2>
  1024ec:	39 d1                	cmp    %edx,%ecx
  1024ee:	75 d2                	jne    1024c2 <kfree+0xc2>
        r->len += r->next->len;
        r->next = r->next->next;
  1024f0:	8b 11                	mov    (%ecx),%edx
      goto out;
    }
    if(rend == p){  // r next to p: replace p with r
      r->len += len;
      if(r->next && r->next == pend){  // r now next to r->next?
        r->len += r->next->len;
  1024f2:	03 71 04             	add    0x4(%ecx),%esi
        r->next = r->next->next;
  1024f5:	89 10                	mov    %edx,(%eax)
      goto out;
    }
    if(rend == p){  // r next to p: replace p with r
      r->len += len;
      if(r->next && r->next == pend){  // r now next to r->next?
        r->len += r->next->len;
  1024f7:	89 70 04             	mov    %esi,0x4(%eax)
  1024fa:	eb c6                	jmp    1024c2 <kfree+0xc2>
  pend = (struct run*)(v + len);
  for(rp=&freelist; (r=*rp) != 0 && r <= pend; rp=&r->next){
    rend = (struct run*)((char*)r + r->len);
    if(r <= p && p < rend)
      panic("freeing free page");
    if(pend == r){  // p next to r: replace r with p
  1024fc:	bf 94 aa 10 00       	mov    $0x10aa94,%edi
  102501:	eb a1                	jmp    1024a4 <kfree+0xa4>
kfree(char *v, int len)
{
  struct run *r, *rend, **rp, *p, *pend;

  if(len <= 0 || len % PAGE)
    panic("kfree");
  102503:	c7 04 24 7e 61 10 00 	movl   $0x10617e,(%esp)
  10250a:	e8 11 e4 ff ff       	call   100920 <panic>
  10250f:	90                   	nop

00102510 <kinit>:
// This code cheats by just considering one megabyte of
// pages after _end.  Real systems would determine the
// amount of memory available in the system and use it all.
void
kinit(void)
{
  102510:	55                   	push   %ebp
  102511:	89 e5                	mov    %esp,%ebp
  102513:	83 ec 18             	sub    $0x18,%esp
  extern int end;
  uint mem;
  char *start;

  initlock(&kalloc_lock, "kalloc");
  102516:	c7 44 24 04 60 61 10 	movl   $0x106160,0x4(%esp)
  10251d:	00 
  10251e:	c7 04 24 60 aa 10 00 	movl   $0x10aa60,(%esp)
  102525:	e8 a6 18 00 00       	call   103dd0 <initlock>
  start = (char*) &end;
  start = (char*) (((uint)start + PAGE) & ~(PAGE-1));
  mem = 256; // assume computer has 256 pages of RAM
  cprintf("mem = %d\n", mem * PAGE);
  10252a:	c7 44 24 04 00 00 10 	movl   $0x100000,0x4(%esp)
  102531:	00 
  102532:	c7 04 24 96 61 10 00 	movl   $0x106196,(%esp)
  102539:	e8 42 e2 ff ff       	call   100780 <cprintf>
  kfree(start, mem * PAGE);
  10253e:	b8 c0 ef 10 00       	mov    $0x10efc0,%eax
  102543:	25 00 f0 ff ff       	and    $0xfffff000,%eax
  102548:	c7 44 24 04 00 00 10 	movl   $0x100000,0x4(%esp)
  10254f:	00 
  102550:	89 04 24             	mov    %eax,(%esp)
  102553:	e8 a8 fe ff ff       	call   102400 <kfree>
}
  102558:	c9                   	leave  
  102559:	c3                   	ret    
  10255a:	90                   	nop
  10255b:	90                   	nop
  10255c:	90                   	nop
  10255d:	90                   	nop
  10255e:	90                   	nop
  10255f:	90                   	nop

00102560 <kbd_getc>:
#include "defs.h"
#include "kbd.h"

int
kbd_getc(void)
{
  102560:	55                   	push   %ebp
static inline uchar
inb(ushort port)
{
  uchar data;

  asm volatile("in %1,%0" : "=a" (data) : "d" (port));
  102561:	ba 64 00 00 00       	mov    $0x64,%edx
  102566:	89 e5                	mov    %esp,%ebp
  102568:	ec                   	in     (%dx),%al
  102569:	89 c2                	mov    %eax,%edx
    normalmap, shiftmap, ctlmap, ctlmap
  };
  uint st, data, c;

  st = inb(KBSTATP);
  if((st & KBS_DIB) == 0)
  10256b:	b8 ff ff ff ff       	mov    $0xffffffff,%eax
  102570:	83 e2 01             	and    $0x1,%edx
  102573:	74 3e                	je     1025b3 <kbd_getc+0x53>
  102575:	ba 60 00 00 00       	mov    $0x60,%edx
  10257a:	ec                   	in     (%dx),%al
    return -1;
  data = inb(KBDATAP);
  10257b:	0f b6 c0             	movzbl %al,%eax

  if(data == 0xE0){
  10257e:	3d e0 00 00 00       	cmp    $0xe0,%eax
  102583:	0f 84 7f 00 00 00    	je     102608 <kbd_getc+0xa8>
    shift |= E0ESC;
    return 0;
  } else if(data & 0x80){
  102589:	84 c0                	test   %al,%al
  10258b:	79 2b                	jns    1025b8 <kbd_getc+0x58>
    // Key released
    data = (shift & E0ESC ? data : data & 0x7F);
  10258d:	8b 15 3c 78 10 00    	mov    0x10783c,%edx
  102593:	f6 c2 40             	test   $0x40,%dl
  102596:	75 03                	jne    10259b <kbd_getc+0x3b>
  102598:	83 e0 7f             	and    $0x7f,%eax
    shift &= ~(shiftcode[data] | E0ESC);
  10259b:	0f b6 80 a0 61 10 00 	movzbl 0x1061a0(%eax),%eax
  1025a2:	83 c8 40             	or     $0x40,%eax
  1025a5:	0f b6 c0             	movzbl %al,%eax
  1025a8:	f7 d0                	not    %eax
  1025aa:	21 d0                	and    %edx,%eax
  1025ac:	a3 3c 78 10 00       	mov    %eax,0x10783c
  1025b1:	31 c0                	xor    %eax,%eax
      c += 'A' - 'a';
    else if('A' <= c && c <= 'Z')
      c += 'a' - 'A';
  }
  return c;
}
  1025b3:	5d                   	pop    %ebp
  1025b4:	c3                   	ret    
  1025b5:	8d 76 00             	lea    0x0(%esi),%esi
  } else if(data & 0x80){
    // Key released
    data = (shift & E0ESC ? data : data & 0x7F);
    shift &= ~(shiftcode[data] | E0ESC);
    return 0;
  } else if(shift & E0ESC){
  1025b8:	8b 0d 3c 78 10 00    	mov    0x10783c,%ecx
  1025be:	f6 c1 40             	test   $0x40,%cl
  1025c1:	74 05                	je     1025c8 <kbd_getc+0x68>
    // Last character was an E0 escape; or with 0x80
    data |= 0x80;
  1025c3:	0c 80                	or     $0x80,%al
    shift &= ~E0ESC;
  1025c5:	83 e1 bf             	and    $0xffffffbf,%ecx
  }

  shift |= shiftcode[data];
  shift ^= togglecode[data];
  1025c8:	0f b6 90 a0 61 10 00 	movzbl 0x1061a0(%eax),%edx
  1025cf:	09 ca                	or     %ecx,%edx
  1025d1:	0f b6 88 a0 62 10 00 	movzbl 0x1062a0(%eax),%ecx
  1025d8:	31 ca                	xor    %ecx,%edx
  c = charcode[shift & (CTL | SHIFT)][data];
  1025da:	89 d1                	mov    %edx,%ecx
  1025dc:	83 e1 03             	and    $0x3,%ecx
  1025df:	8b 0c 8d a0 63 10 00 	mov    0x1063a0(,%ecx,4),%ecx
    data |= 0x80;
    shift &= ~E0ESC;
  }

  shift |= shiftcode[data];
  shift ^= togglecode[data];
  1025e6:	89 15 3c 78 10 00    	mov    %edx,0x10783c
  c = charcode[shift & (CTL | SHIFT)][data];
  if(shift & CAPSLOCK){
  1025ec:	83 e2 08             	and    $0x8,%edx
    shift &= ~E0ESC;
  }

  shift |= shiftcode[data];
  shift ^= togglecode[data];
  c = charcode[shift & (CTL | SHIFT)][data];
  1025ef:	0f b6 04 01          	movzbl (%ecx,%eax,1),%eax
  if(shift & CAPSLOCK){
  1025f3:	74 be                	je     1025b3 <kbd_getc+0x53>
    if('a' <= c && c <= 'z')
  1025f5:	8d 50 9f             	lea    -0x61(%eax),%edx
  1025f8:	83 fa 19             	cmp    $0x19,%edx
  1025fb:	77 1b                	ja     102618 <kbd_getc+0xb8>
      c += 'A' - 'a';
  1025fd:	83 e8 20             	sub    $0x20,%eax
    else if('A' <= c && c <= 'Z')
      c += 'a' - 'A';
  }
  return c;
}
  102600:	5d                   	pop    %ebp
  102601:	c3                   	ret    
  102602:	8d b6 00 00 00 00    	lea    0x0(%esi),%esi
  if((st & KBS_DIB) == 0)
    return -1;
  data = inb(KBDATAP);

  if(data == 0xE0){
    shift |= E0ESC;
  102608:	30 c0                	xor    %al,%al
  10260a:	83 0d 3c 78 10 00 40 	orl    $0x40,0x10783c
      c += 'A' - 'a';
    else if('A' <= c && c <= 'Z')
      c += 'a' - 'A';
  }
  return c;
}
  102611:	5d                   	pop    %ebp
  102612:	c3                   	ret    
  102613:	90                   	nop
  102614:	8d 74 26 00          	lea    0x0(%esi,%eiz,1),%esi
  shift ^= togglecode[data];
  c = charcode[shift & (CTL | SHIFT)][data];
  if(shift & CAPSLOCK){
    if('a' <= c && c <= 'z')
      c += 'A' - 'a';
    else if('A' <= c && c <= 'Z')
  102618:	8d 50 bf             	lea    -0x41(%eax),%edx
  10261b:	83 fa 19             	cmp    $0x19,%edx
  10261e:	77 93                	ja     1025b3 <kbd_getc+0x53>
      c += 'a' - 'A';
  102620:	83 c0 20             	add    $0x20,%eax
  }
  return c;
}
  102623:	5d                   	pop    %ebp
  102624:	c3                   	ret    
  102625:	8d 74 26 00          	lea    0x0(%esi,%eiz,1),%esi
  102629:	8d bc 27 00 00 00 00 	lea    0x0(%edi,%eiz,1),%edi

00102630 <kbd_intr>:

void
kbd_intr(void)
{
  102630:	55                   	push   %ebp
  102631:	89 e5                	mov    %esp,%ebp
  102633:	83 ec 18             	sub    $0x18,%esp
  console_intr(kbd_getc);
  102636:	c7 04 24 60 25 10 00 	movl   $0x102560,(%esp)
  10263d:	e8 be de ff ff       	call   100500 <console_intr>
}
  102642:	c9                   	leave  
  102643:	c3                   	ret    
  102644:	90                   	nop
  102645:	90                   	nop
  102646:	90                   	nop
  102647:	90                   	nop
  102648:	90                   	nop
  102649:	90                   	nop
  10264a:	90                   	nop
  10264b:	90                   	nop
  10264c:	90                   	nop
  10264d:	90                   	nop
  10264e:	90                   	nop
  10264f:	90                   	nop

00102650 <lapic_init>:
}

void
lapic_init(int c)
{
  if(!lapic) 
  102650:	a1 98 aa 10 00       	mov    0x10aa98,%eax
  lapic[ID];  // wait for write to finish, by reading
}

void
lapic_init(int c)
{
  102655:	55                   	push   %ebp
  102656:	89 e5                	mov    %esp,%ebp
  if(!lapic) 
  102658:	85 c0                	test   %eax,%eax
  10265a:	0f 84 c4 00 00 00    	je     102724 <lapic_init+0xd4>
volatile uint *lapic;  // Initialized in mp.c

static void
lapicw(int index, int value)
{
  lapic[index] = value;
  102660:	c7 80 f0 00 00 00 3f 	movl   $0x13f,0xf0(%eax)
  102667:	01 00 00 
  lapic[ID];  // wait for write to finish, by reading
  10266a:	8b 50 20             	mov    0x20(%eax),%edx
volatile uint *lapic;  // Initialized in mp.c

static void
lapicw(int index, int value)
{
  lapic[index] = value;
  10266d:	c7 80 e0 03 00 00 0b 	movl   $0xb,0x3e0(%eax)
  102674:	00 00 00 
  lapic[ID];  // wait for write to finish, by reading
  102677:	8b 50 20             	mov    0x20(%eax),%edx
volatile uint *lapic;  // Initialized in mp.c

static void
lapicw(int index, int value)
{
  lapic[index] = value;
  10267a:	c7 80 20 03 00 00 20 	movl   $0x20020,0x320(%eax)
  102681:	00 02 00 
  lapic[ID];  // wait for write to finish, by reading
  102684:	8b 50 20             	mov    0x20(%eax),%edx
volatile uint *lapic;  // Initialized in mp.c

static void
lapicw(int index, int value)
{
  lapic[index] = value;
  102687:	c7 80 80 03 00 00 80 	movl   $0x989680,0x380(%eax)
  10268e:	96 98 00 
  lapic[ID];  // wait for write to finish, by reading
  102691:	8b 50 20             	mov    0x20(%eax),%edx
volatile uint *lapic;  // Initialized in mp.c

static void
lapicw(int index, int value)
{
  lapic[index] = value;
  102694:	c7 80 50 03 00 00 00 	movl   $0x10000,0x350(%eax)
  10269b:	00 01 00 
  lapic[ID];  // wait for write to finish, by reading
  10269e:	8b 50 20             	mov    0x20(%eax),%edx
volatile uint *lapic;  // Initialized in mp.c

static void
lapicw(int index, int value)
{
  lapic[index] = value;
  1026a1:	c7 80 60 03 00 00 00 	movl   $0x10000,0x360(%eax)
  1026a8:	00 01 00 
  lapic[ID];  // wait for write to finish, by reading
  1026ab:	8b 50 20             	mov    0x20(%eax),%edx
  lapicw(LINT0, MASKED);
  lapicw(LINT1, MASKED);

  // Disable performance counter overflow interrupts
  // on machines that provide that interrupt entry.
  if(((lapic[VER]>>16) & 0xFF) >= 4)
  1026ae:	8b 50 30             	mov    0x30(%eax),%edx
  1026b1:	c1 ea 10             	shr    $0x10,%edx
  1026b4:	80 fa 03             	cmp    $0x3,%dl
  1026b7:	77 6f                	ja     102728 <lapic_init+0xd8>
volatile uint *lapic;  // Initialized in mp.c

static void
lapicw(int index, int value)
{
  lapic[index] = value;
  1026b9:	c7 80 70 03 00 00 33 	movl   $0x33,0x370(%eax)
  1026c0:	00 00 00 
  lapic[ID];  // wait for write to finish, by reading
  1026c3:	8b 50 20             	mov    0x20(%eax),%edx
volatile uint *lapic;  // Initialized in mp.c

static void
lapicw(int index, int value)
{
  lapic[index] = value;
  1026c6:	8d 88 00 03 00 00    	lea    0x300(%eax),%ecx
  1026cc:	c7 80 80 02 00 00 00 	movl   $0x0,0x280(%eax)
  1026d3:	00 00 00 
  lapic[ID];  // wait for write to finish, by reading
  1026d6:	8b 50 20             	mov    0x20(%eax),%edx
volatile uint *lapic;  // Initialized in mp.c

static void
lapicw(int index, int value)
{
  lapic[index] = value;
  1026d9:	c7 80 80 02 00 00 00 	movl   $0x0,0x280(%eax)
  1026e0:	00 00 00 
  lapic[ID];  // wait for write to finish, by reading
  1026e3:	8b 50 20             	mov    0x20(%eax),%edx
volatile uint *lapic;  // Initialized in mp.c

static void
lapicw(int index, int value)
{
  lapic[index] = value;
  1026e6:	c7 80 b0 00 00 00 00 	movl   $0x0,0xb0(%eax)
  1026ed:	00 00 00 
  lapic[ID];  // wait for write to finish, by reading
  1026f0:	8b 50 20             	mov    0x20(%eax),%edx
volatile uint *lapic;  // Initialized in mp.c

static void
lapicw(int index, int value)
{
  lapic[index] = value;
  1026f3:	c7 80 10 03 00 00 00 	movl   $0x0,0x310(%eax)
  1026fa:	00 00 00 
  lapic[ID];  // wait for write to finish, by reading
  1026fd:	8b 50 20             	mov    0x20(%eax),%edx
volatile uint *lapic;  // Initialized in mp.c

static void
lapicw(int index, int value)
{
  lapic[index] = value;
  102700:	c7 80 00 03 00 00 00 	movl   $0x88500,0x300(%eax)
  102707:	85 08 00 
  lapic[ID];  // wait for write to finish, by reading
  10270a:	8b 50 20             	mov    0x20(%eax),%edx
  10270d:	8d 76 00             	lea    0x0(%esi),%esi
  lapicw(EOI, 0);

  // Send an Init Level De-Assert to synchronise arbitration ID's.
  lapicw(ICRHI, 0);
  lapicw(ICRLO, BCAST | INIT | LEVEL);
  while(lapic[ICRLO] & DELIVS)
  102710:	8b 11                	mov    (%ecx),%edx
  102712:	80 e6 10             	and    $0x10,%dh
  102715:	75 f9                	jne    102710 <lapic_init+0xc0>
volatile uint *lapic;  // Initialized in mp.c

static void
lapicw(int index, int value)
{
  lapic[index] = value;
  102717:	c7 80 80 00 00 00 00 	movl   $0x0,0x80(%eax)
  10271e:	00 00 00 
  lapic[ID];  // wait for write to finish, by reading
  102721:	8b 40 20             	mov    0x20(%eax),%eax
  while(lapic[ICRLO] & DELIVS)
    ;

  // Enable interrupts on the APIC (but not on the processor).
  lapicw(TPR, 0);
}
  102724:	5d                   	pop    %ebp
  102725:	c3                   	ret    
  102726:	66 90                	xchg   %ax,%ax
volatile uint *lapic;  // Initialized in mp.c

static void
lapicw(int index, int value)
{
  lapic[index] = value;
  102728:	c7 80 40 03 00 00 00 	movl   $0x10000,0x340(%eax)
  10272f:	00 01 00 
  lapic[ID];  // wait for write to finish, by reading
  102732:	8b 50 20             	mov    0x20(%eax),%edx
  102735:	eb 82                	jmp    1026b9 <lapic_init+0x69>
  102737:	89 f6                	mov    %esi,%esi
  102739:	8d bc 27 00 00 00 00 	lea    0x0(%edi,%eiz,1),%edi

00102740 <lapic_eoi>:

// Acknowledge interrupt.
void
lapic_eoi(void)
{
  if(lapic)
  102740:	a1 98 aa 10 00       	mov    0x10aa98,%eax
}

// Acknowledge interrupt.
void
lapic_eoi(void)
{
  102745:	55                   	push   %ebp
  102746:	89 e5                	mov    %esp,%ebp
  if(lapic)
  102748:	85 c0                	test   %eax,%eax
  10274a:	74 0d                	je     102759 <lapic_eoi+0x19>
volatile uint *lapic;  // Initialized in mp.c

static void
lapicw(int index, int value)
{
  lapic[index] = value;
  10274c:	c7 80 b0 00 00 00 00 	movl   $0x0,0xb0(%eax)
  102753:	00 00 00 
  lapic[ID];  // wait for write to finish, by reading
  102756:	8b 40 20             	mov    0x20(%eax),%eax
void
lapic_eoi(void)
{
  if(lapic)
    lapicw(EOI, 0);
}
  102759:	5d                   	pop    %ebp
  10275a:	c3                   	ret    
  10275b:	90                   	nop
  10275c:	8d 74 26 00          	lea    0x0(%esi,%eiz,1),%esi

00102760 <lapic_startap>:

// Start additional processor running bootstrap code at addr.
// See Appendix B of MultiProcessor Specification.
void
lapic_startap(uchar apicid, uint addr)
{
  102760:	55                   	push   %ebp
}

static inline void
outb(ushort port, uchar data)
{
  asm volatile("out %0,%1" : : "a" (data), "d" (port));
  102761:	ba 70 00 00 00       	mov    $0x70,%edx
  102766:	89 e5                	mov    %esp,%ebp
  102768:	b8 0f 00 00 00       	mov    $0xf,%eax
  10276d:	57                   	push   %edi
  10276e:	56                   	push   %esi
  10276f:	53                   	push   %ebx
  102770:	83 ec 18             	sub    $0x18,%esp
  102773:	0f b6 4d 08          	movzbl 0x8(%ebp),%ecx
  102777:	8b 5d 0c             	mov    0xc(%ebp),%ebx
  10277a:	ee                   	out    %al,(%dx)
  10277b:	b8 0a 00 00 00       	mov    $0xa,%eax
  102780:	b2 71                	mov    $0x71,%dl
  102782:	ee                   	out    %al,(%dx)
volatile uint *lapic;  // Initialized in mp.c

static void
lapicw(int index, int value)
{
  lapic[index] = value;
  102783:	8b 15 98 aa 10 00    	mov    0x10aa98,%edx
  // the AP startup code prior to the [universal startup algorithm]."
  outb(IO_RTC, 0xF);  // offset 0xF is shutdown code
  outb(IO_RTC+1, 0x0A);
  wrv = (ushort*)(0x40<<4 | 0x67);  // Warm reset vector
  wrv[0] = 0;
  wrv[1] = addr >> 4;
  102789:	89 d8                	mov    %ebx,%eax
volatile uint *lapic;  // Initialized in mp.c

static void
lapicw(int index, int value)
{
  lapic[index] = value;
  10278b:	89 cf                	mov    %ecx,%edi
  // the AP startup code prior to the [universal startup algorithm]."
  outb(IO_RTC, 0xF);  // offset 0xF is shutdown code
  outb(IO_RTC+1, 0x0A);
  wrv = (ushort*)(0x40<<4 | 0x67);  // Warm reset vector
  wrv[0] = 0;
  wrv[1] = addr >> 4;
  10278d:	c1 e8 04             	shr    $0x4,%eax
  102790:	66 a3 69 04 00 00    	mov    %ax,0x469
volatile uint *lapic;  // Initialized in mp.c

static void
lapicw(int index, int value)
{
  lapic[index] = value;
  102796:	c1 e7 18             	shl    $0x18,%edi
  // and the warm reset vector (DWORD based at 40:67) to point at
  // the AP startup code prior to the [universal startup algorithm]."
  outb(IO_RTC, 0xF);  // offset 0xF is shutdown code
  outb(IO_RTC+1, 0x0A);
  wrv = (ushort*)(0x40<<4 | 0x67);  // Warm reset vector
  wrv[0] = 0;
  102799:	66 c7 05 67 04 00 00 	movw   $0x0,0x467
  1027a0:	00 00 
volatile uint *lapic;  // Initialized in mp.c

static void
lapicw(int index, int value)
{
  lapic[index] = value;
  1027a2:	8d 82 10 03 00 00    	lea    0x310(%edx),%eax
  1027a8:	89 ba 10 03 00 00    	mov    %edi,0x310(%edx)
  lapic[ID];  // wait for write to finish, by reading
  1027ae:	8d 72 20             	lea    0x20(%edx),%esi
volatile uint *lapic;  // Initialized in mp.c

static void
lapicw(int index, int value)
{
  lapic[index] = value;
  1027b1:	89 45 dc             	mov    %eax,-0x24(%ebp)
  lapic[ID];  // wait for write to finish, by reading
  1027b4:	8b 42 20             	mov    0x20(%edx),%eax
volatile uint *lapic;  // Initialized in mp.c

static void
lapicw(int index, int value)
{
  lapic[index] = value;
  1027b7:	8d 82 00 03 00 00    	lea    0x300(%edx),%eax
  1027bd:	c7 82 00 03 00 00 00 	movl   $0xc500,0x300(%edx)
  1027c4:	c5 00 00 
  1027c7:	89 45 e0             	mov    %eax,-0x20(%ebp)
  lapic[ID];  // wait for write to finish, by reading
  1027ca:	8b 42 20             	mov    0x20(%edx),%eax
// Spin for a given number of microseconds.
// On real hardware would want to tune this dynamically.
static void
microdelay(int us)
{
  volatile int j = 0;
  1027cd:	b8 c7 00 00 00       	mov    $0xc7,%eax
  1027d2:	c7 45 f0 00 00 00 00 	movl   $0x0,-0x10(%ebp)
  1027d9:	eb 0c                	jmp    1027e7 <lapic_startap+0x87>
  1027db:	90                   	nop
  1027dc:	8d 74 26 00          	lea    0x0(%esi,%eiz,1),%esi
  
  while(us-- > 0)
  1027e0:	85 c0                	test   %eax,%eax
  1027e2:	74 2d                	je     102811 <lapic_startap+0xb1>
  1027e4:	83 e8 01             	sub    $0x1,%eax
    for(j=0; j<10000; j++);
  1027e7:	c7 45 f0 00 00 00 00 	movl   $0x0,-0x10(%ebp)
  1027ee:	8b 4d f0             	mov    -0x10(%ebp),%ecx
  1027f1:	81 f9 0f 27 00 00    	cmp    $0x270f,%ecx
  1027f7:	7f e7                	jg     1027e0 <lapic_startap+0x80>
  1027f9:	8b 4d f0             	mov    -0x10(%ebp),%ecx
  1027fc:	83 c1 01             	add    $0x1,%ecx
  1027ff:	89 4d f0             	mov    %ecx,-0x10(%ebp)
  102802:	8b 4d f0             	mov    -0x10(%ebp),%ecx
  102805:	81 f9 0f 27 00 00    	cmp    $0x270f,%ecx
  10280b:	7e ec                	jle    1027f9 <lapic_startap+0x99>
static void
microdelay(int us)
{
  volatile int j = 0;
  
  while(us-- > 0)
  10280d:	85 c0                	test   %eax,%eax
  10280f:	75 d3                	jne    1027e4 <lapic_startap+0x84>
volatile uint *lapic;  // Initialized in mp.c

static void
lapicw(int index, int value)
{
  lapic[index] = value;
  102811:	c7 82 00 03 00 00 00 	movl   $0x8500,0x300(%edx)
  102818:	85 00 00 
  lapic[ID];  // wait for write to finish, by reading
  10281b:	8b 42 20             	mov    0x20(%edx),%eax
// Spin for a given number of microseconds.
// On real hardware would want to tune this dynamically.
static void
microdelay(int us)
{
  volatile int j = 0;
  10281e:	b8 63 00 00 00       	mov    $0x63,%eax
  102823:	c7 45 f0 00 00 00 00 	movl   $0x0,-0x10(%ebp)
  10282a:	eb 0b                	jmp    102837 <lapic_startap+0xd7>
  10282c:	8d 74 26 00          	lea    0x0(%esi,%eiz,1),%esi
  
  while(us-- > 0)
  102830:	85 c0                	test   %eax,%eax
  102832:	74 2d                	je     102861 <lapic_startap+0x101>
  102834:	83 e8 01             	sub    $0x1,%eax
    for(j=0; j<10000; j++);
  102837:	c7 45 f0 00 00 00 00 	movl   $0x0,-0x10(%ebp)
  10283e:	8b 55 f0             	mov    -0x10(%ebp),%edx
  102841:	81 fa 0f 27 00 00    	cmp    $0x270f,%edx
  102847:	7f e7                	jg     102830 <lapic_startap+0xd0>
  102849:	8b 55 f0             	mov    -0x10(%ebp),%edx
  10284c:	83 c2 01             	add    $0x1,%edx
  10284f:	89 55 f0             	mov    %edx,-0x10(%ebp)
  102852:	8b 55 f0             	mov    -0x10(%ebp),%edx
  102855:	81 fa 0f 27 00 00    	cmp    $0x270f,%edx
  10285b:	7e ec                	jle    102849 <lapic_startap+0xe9>
static void
microdelay(int us)
{
  volatile int j = 0;
  
  while(us-- > 0)
  10285d:	85 c0                	test   %eax,%eax
  10285f:	75 d3                	jne    102834 <lapic_startap+0xd4>
  102861:	c1 eb 0c             	shr    $0xc,%ebx
  102864:	31 c9                	xor    %ecx,%ecx
  102866:	80 cf 06             	or     $0x6,%bh
volatile uint *lapic;  // Initialized in mp.c

static void
lapicw(int index, int value)
{
  lapic[index] = value;
  102869:	8b 45 dc             	mov    -0x24(%ebp),%eax
  10286c:	89 38                	mov    %edi,(%eax)
  lapic[ID];  // wait for write to finish, by reading
  10286e:	8b 06                	mov    (%esi),%eax
volatile uint *lapic;  // Initialized in mp.c

static void
lapicw(int index, int value)
{
  lapic[index] = value;
  102870:	8b 45 e0             	mov    -0x20(%ebp),%eax
  102873:	89 18                	mov    %ebx,(%eax)
  lapic[ID];  // wait for write to finish, by reading
  102875:	8b 06                	mov    (%esi),%eax
// Spin for a given number of microseconds.
// On real hardware would want to tune this dynamically.
static void
microdelay(int us)
{
  volatile int j = 0;
  102877:	b8 c7 00 00 00       	mov    $0xc7,%eax
  10287c:	c7 45 f0 00 00 00 00 	movl   $0x0,-0x10(%ebp)
  102883:	eb 0a                	jmp    10288f <lapic_startap+0x12f>
  102885:	8d 76 00             	lea    0x0(%esi),%esi
  
  while(us-- > 0)
  102888:	85 c0                	test   %eax,%eax
  10288a:	74 34                	je     1028c0 <lapic_startap+0x160>
  10288c:	83 e8 01             	sub    $0x1,%eax
    for(j=0; j<10000; j++);
  10288f:	c7 45 f0 00 00 00 00 	movl   $0x0,-0x10(%ebp)
  102896:	8b 55 f0             	mov    -0x10(%ebp),%edx
  102899:	81 fa 0f 27 00 00    	cmp    $0x270f,%edx
  10289f:	7f e7                	jg     102888 <lapic_startap+0x128>
  1028a1:	8b 55 f0             	mov    -0x10(%ebp),%edx
  1028a4:	83 c2 01             	add    $0x1,%edx
  1028a7:	89 55 f0             	mov    %edx,-0x10(%ebp)
  1028aa:	8b 55 f0             	mov    -0x10(%ebp),%edx
  1028ad:	81 fa 0f 27 00 00    	cmp    $0x270f,%edx
  1028b3:	7e ec                	jle    1028a1 <lapic_startap+0x141>
static void
microdelay(int us)
{
  volatile int j = 0;
  
  while(us-- > 0)
  1028b5:	85 c0                	test   %eax,%eax
  1028b7:	75 d3                	jne    10288c <lapic_startap+0x12c>
  1028b9:	8d b4 26 00 00 00 00 	lea    0x0(%esi,%eiz,1),%esi
  // Send startup IPI (twice!) to enter bootstrap code.
  // Regular hardware is supposed to only accept a STARTUP
  // when it is in the halted state due to an INIT.  So the second
  // should be ignored, but it is part of the official Intel algorithm.
  // Bochs complains about the second one.  Too bad for Bochs.
  for(i = 0; i < 2; i++){
  1028c0:	83 c1 01             	add    $0x1,%ecx
  1028c3:	83 f9 02             	cmp    $0x2,%ecx
  1028c6:	75 a1                	jne    102869 <lapic_startap+0x109>
    lapicw(ICRHI, apicid<<24);
    lapicw(ICRLO, STARTUP | (addr>>12));
    microdelay(200);
  }
}
  1028c8:	83 c4 18             	add    $0x18,%esp
  1028cb:	5b                   	pop    %ebx
  1028cc:	5e                   	pop    %esi
  1028cd:	5f                   	pop    %edi
  1028ce:	5d                   	pop    %ebp
  1028cf:	c3                   	ret    

001028d0 <cpu>:
  lapicw(TPR, 0);
}

int
cpu(void)
{
  1028d0:	55                   	push   %ebp
  1028d1:	89 e5                	mov    %esp,%ebp
  1028d3:	83 ec 18             	sub    $0x18,%esp

static inline uint
read_eflags(void)
{
  uint eflags;
  asm volatile("pushfl; popl %0" : "=r" (eflags));
  1028d6:	9c                   	pushf  
  1028d7:	58                   	pop    %eax
  // Cannot call cpu when interrupts are enabled:
  // result not guaranteed to last long enough to be used!
  // Would prefer to panic but even printing is chancy here:
  // everything, including cprintf, calls cpu, at least indirectly
  // through acquire and release.
  if(read_eflags()&FL_IF){
  1028d8:	f6 c4 02             	test   $0x2,%ah
